

Microchip Technology PIC LITE Macro Assembler V2.00 build -1524193055 
                                                                                               Thu Mar 04 15:48:05 2021

Microchip Technology Omniscient Code Generator v2.00 (Free mode) build 20180527130849
     1  0000                     
      + 0000                     
     2                           ; Version 2.00
     3                           ; Generated 27/05/2018 GMT
     4                           
     5                           ; 
     6                           ; Copyright © 2018, Microchip Technology Inc. and its subsidiaries ("Microchip")
     7                           ; All rights reserved.
     8                           ; 
     9                           ; This software is developed by Microchip Technology Inc. and its subsidiaries ("Microch
                                 ip").
    10                           ; 
    11                           ; Redistribution and use in source and binary forms, with or without modification, are
    12                           ; permitted provided that the following conditions are met:
    13                           ; 
    14                           ;     1. Redistributions of source code must retain the above copyright notice, this lis
                                 t of
    15                           ;        conditions and the following disclaimer.
    16                           ; 
    17                           ;     2. Redistributions in binary form must reproduce the above copyright notice, this 
                                 list
    18                           ;        of conditions and the following disclaimer in the documentation and/or other
    19                           ;        materials provided with the distribution.
    20                           ; 
    21                           ;     3. Microchip's name may not be used to endorse or promote products derived from th
                                 is
    22                           ;        software without specific prior written permission.
    23                           ; 
    24                           ; THIS SOFTWARE IS PROVIDED BY MICROCHIP "AS IS" AND ANY EXPRESS OR IMPLIED WARRANTIES,

    25                           ; INCLUDING, BUT NOT LIMITED TO, THE IMPLIED WARRANTIES OF MERCHANTABILITY AND FITNESS F
                                 OR
    26                           ; PURPOSE ARE DISCLAIMED.  IN NO EVENT SHALL MICROCHIP BE LIABLE FOR ANY DIRECT, INDIREC
                                 T,
    27                           ; INCIDENTAL, SPECIAL, EXEMPLARY, OR CONSEQUENTIAL DAMAGES (INCLUDING BUT NOT LIMITED TO
                                 
    28                           ; PROCUREMENT OF SUBSTITUTE GOODS OR SERVICES; LOSS OF USE, DATA OR PROFITS; OR BUSINESS
                                 
    29                           ; INTERRUPTION) HOWSOEVER CAUSED AND ON ANY THEORY OF LIABILITY, WHETHER IN CONTRACT, ST
                                 RICT
    30                           ; LIABILITY, OR TORT (INCLUDING NEGLIGENCE OR OTHERWISE) ARISING IN ANY WAY OUT OF THE U
                                 SE OF
    31                           ; THIS SOFTWARE, EVEN IF ADVISED OF THE POSSIBILITY OF SUCH DAMAGE.
    32                           ; 
    33                           
    34                           
    35                           ; 
    36                           ; Code-generator required, PIC16F887 Definitions
    37                           ; 
    38  0004                     fsr0 equ 04h
    39  0004                     indf equ 00h
    40  0000                     indf0 equ 00h
    41  0000                     pc equ 02h
    42  0002                     pcl equ 02h
    43  0002                     pclath equ 0Ah
    44  000A                     status equ 03h
    45  0003                     
     2                           opt pagewidth 120
     3  0000                     byte0	macro	val
     4                           	(getbyte(val,0))
     5                           endm
     6  0000                     byte1	macro	val
     7                           	(getbyte(val,1))
     8                           endm
     9  0000                     byte2	macro	val
    10                           	(getbyte(val,2))
    11                           endm
    12  0000                     byte3	macro	val
    13                           	(getbyte(val,3))
    14                           endm
    15  0000                     byte4	macro	val
    16                           	(getbyte(val,4))
    17                           endm
    18  0000                     byte5	macro	val
    19                           	(getbyte(val,5))
    20                           endm
    21  0000                     byte6	macro	val
    22                           	(getbyte(val,6))
    23                           endm
    24  0000                     byte7	macro	val
    25                           	(getbyte(val,7))
    26                           endm
    27  0000                     getword	macro	val,pos
    28                           	(((val) >> (8 * pos)) and 0xffff)
    29                           endm
    30  0000                     word0	macro	val
    31                           	(getword(val,0))
    32                           endm
    33  0000                     word1	macro	val
    34                           	(getword(val,2))
    35                           endm
    36  0000                     word2	macro	val
    37                           	(getword(val,4))
    38                           endm
    39  0000                     word3	macro	val
    40                           	(getword(val,6))
    41                           endm
    42  0000                     gettword	macro	val,pos
    43                           	(((val) >> (8 * pos)) and 0xffffff)
    44                           endm
    45  0000                     tword0	macro	val
    46                           	(gettword(val,0))
    47                           endm
    48  0000                     tword1	macro	val
    49                           	(gettword(val,3))
    50                           endm
    51  0000                     tword2	macro	val
    52                           	(gettword(val,6))
    53                           endm
    54  0000                     getdword	macro	val,pos
    55                           	(((val) >> (8 * pos)) and 0xffffffff)
    56                           endm
    57  0000                     dword0	macro	val
    58                           	(getdword(val,0))
    59                           endm
    60  0000                     dword1	macro	val
    61                           	(getdword(val,4))
    62                           endm
    63  0000                     clrc	macro
    64                           	bcf	3,0
    65                           	endm
    66  0000                     clrz	macro
    67                           	bcf	3,2
    68                           	endm
    69  0000                     setc	macro
    70                           	bsf	3,0
    71                           	endm
    72  0000                     setz	macro
    73                           	bsf	3,2
    74                           	endm
    75  0000                     skipc	macro
    76                           	btfss	3,0
    77                           	endm
    78  0000                     skipz	macro
    79                           	btfss	3,2
    80                           	endm
    81  0000                     skipnc	macro
    82                           	btfsc	3,0
    83                           	endm
    84  0000                     skipnz	macro
    85                           	btfsc	3,2
    86                           	endm
    87  0000                     # 54 "C:\Program Files (x86)\Microchip\xc8\v2.00\pic\include\pic16f887.h"
    88                           INDF equ 00h ;# 
    89  0000                     # 61 "C:\Program Files (x86)\Microchip\xc8\v2.00\pic\include\pic16f887.h"
    90                           TMR0 equ 01h ;# 
    91  0001                     # 68 "C:\Program Files (x86)\Microchip\xc8\v2.00\pic\include\pic16f887.h"
    92                           PCL equ 02h ;# 
    93  0002                     # 75 "C:\Program Files (x86)\Microchip\xc8\v2.00\pic\include\pic16f887.h"
    94                           STATUS equ 03h ;# 
    95  0003                     # 161 "C:\Program Files (x86)\Microchip\xc8\v2.00\pic\include\pic16f887.h"
    96                           FSR equ 04h ;# 
    97  0004                     # 168 "C:\Program Files (x86)\Microchip\xc8\v2.00\pic\include\pic16f887.h"
    98                           PORTA equ 05h ;# 
    99  0005                     # 230 "C:\Program Files (x86)\Microchip\xc8\v2.00\pic\include\pic16f887.h"
   100                           PORTB equ 06h ;# 
   101  0006                     # 292 "C:\Program Files (x86)\Microchip\xc8\v2.00\pic\include\pic16f887.h"
   102                           PORTC equ 07h ;# 
   103  0007                     # 354 "C:\Program Files (x86)\Microchip\xc8\v2.00\pic\include\pic16f887.h"
   104                           PORTD equ 08h ;# 
   105  0008                     # 416 "C:\Program Files (x86)\Microchip\xc8\v2.00\pic\include\pic16f887.h"
   106                           PORTE equ 09h ;# 
   107  0009                     # 454 "C:\Program Files (x86)\Microchip\xc8\v2.00\pic\include\pic16f887.h"
   108                           PCLATH equ 0Ah ;# 
   109  000A                     # 461 "C:\Program Files (x86)\Microchip\xc8\v2.00\pic\include\pic16f887.h"
   110                           INTCON equ 0Bh ;# 
   111  000B                     # 539 "C:\Program Files (x86)\Microchip\xc8\v2.00\pic\include\pic16f887.h"
   112                           PIR1 equ 0Ch ;# 
   113  000C                     # 595 "C:\Program Files (x86)\Microchip\xc8\v2.00\pic\include\pic16f887.h"
   114                           PIR2 equ 0Dh ;# 
   115  000D                     # 652 "C:\Program Files (x86)\Microchip\xc8\v2.00\pic\include\pic16f887.h"
   116                           TMR1 equ 0Eh ;# 
   117  000E                     # 659 "C:\Program Files (x86)\Microchip\xc8\v2.00\pic\include\pic16f887.h"
   118                           TMR1L equ 0Eh ;# 
   119  000E                     # 666 "C:\Program Files (x86)\Microchip\xc8\v2.00\pic\include\pic16f887.h"
   120                           TMR1H equ 0Fh ;# 
   121  000F                     # 673 "C:\Program Files (x86)\Microchip\xc8\v2.00\pic\include\pic16f887.h"
   122                           T1CON equ 010h ;# 
   123  0010                     # 767 "C:\Program Files (x86)\Microchip\xc8\v2.00\pic\include\pic16f887.h"
   124                           TMR2 equ 011h ;# 
   125  0011                     # 774 "C:\Program Files (x86)\Microchip\xc8\v2.00\pic\include\pic16f887.h"
   126                           T2CON equ 012h ;# 
   127  0012                     # 845 "C:\Program Files (x86)\Microchip\xc8\v2.00\pic\include\pic16f887.h"
   128                           SSPBUF equ 013h ;# 
   129  0013                     # 852 "C:\Program Files (x86)\Microchip\xc8\v2.00\pic\include\pic16f887.h"
   130                           SSPCON equ 014h ;# 
   131  0014                     # 922 "C:\Program Files (x86)\Microchip\xc8\v2.00\pic\include\pic16f887.h"
   132                           CCPR1 equ 015h ;# 
   133  0015                     # 929 "C:\Program Files (x86)\Microchip\xc8\v2.00\pic\include\pic16f887.h"
   134                           CCPR1L equ 015h ;# 
   135  0015                     # 936 "C:\Program Files (x86)\Microchip\xc8\v2.00\pic\include\pic16f887.h"
   136                           CCPR1H equ 016h ;# 
   137  0016                     # 943 "C:\Program Files (x86)\Microchip\xc8\v2.00\pic\include\pic16f887.h"
   138                           CCP1CON equ 017h ;# 
   139  0017                     # 1040 "C:\Program Files (x86)\Microchip\xc8\v2.00\pic\include\pic16f887.h"
   140                           RCSTA equ 018h ;# 
   141  0018                     # 1135 "C:\Program Files (x86)\Microchip\xc8\v2.00\pic\include\pic16f887.h"
   142                           TXREG equ 019h ;# 
   143  0019                     # 1142 "C:\Program Files (x86)\Microchip\xc8\v2.00\pic\include\pic16f887.h"
   144                           RCREG equ 01Ah ;# 
   145  001A                     # 1149 "C:\Program Files (x86)\Microchip\xc8\v2.00\pic\include\pic16f887.h"
   146                           CCPR2 equ 01Bh ;# 
   147  001B                     # 1156 "C:\Program Files (x86)\Microchip\xc8\v2.00\pic\include\pic16f887.h"
   148                           CCPR2L equ 01Bh ;# 
   149  001B                     # 1163 "C:\Program Files (x86)\Microchip\xc8\v2.00\pic\include\pic16f887.h"
   150                           CCPR2H equ 01Ch ;# 
   151  001C                     # 1170 "C:\Program Files (x86)\Microchip\xc8\v2.00\pic\include\pic16f887.h"
   152                           CCP2CON equ 01Dh ;# 
   153  001D                     # 1240 "C:\Program Files (x86)\Microchip\xc8\v2.00\pic\include\pic16f887.h"
   154                           ADRESH equ 01Eh ;# 
   155  001E                     # 1247 "C:\Program Files (x86)\Microchip\xc8\v2.00\pic\include\pic16f887.h"
   156                           ADCON0 equ 01Fh ;# 
   157  001F                     # 1348 "C:\Program Files (x86)\Microchip\xc8\v2.00\pic\include\pic16f887.h"
   158                           OPTION_REG equ 081h ;# 
   159  0081                     # 1418 "C:\Program Files (x86)\Microchip\xc8\v2.00\pic\include\pic16f887.h"
   160                           TRISA equ 085h ;# 
   161  0085                     # 1480 "C:\Program Files (x86)\Microchip\xc8\v2.00\pic\include\pic16f887.h"
   162                           TRISB equ 086h ;# 
   163  0086                     # 1542 "C:\Program Files (x86)\Microchip\xc8\v2.00\pic\include\pic16f887.h"
   164                           TRISC equ 087h ;# 
   165  0087                     # 1604 "C:\Program Files (x86)\Microchip\xc8\v2.00\pic\include\pic16f887.h"
   166                           TRISD equ 088h ;# 
   167  0088                     # 1666 "C:\Program Files (x86)\Microchip\xc8\v2.00\pic\include\pic16f887.h"
   168                           TRISE equ 089h ;# 
   169  0089                     # 1704 "C:\Program Files (x86)\Microchip\xc8\v2.00\pic\include\pic16f887.h"
   170                           PIE1 equ 08Ch ;# 
   171  008C                     # 1760 "C:\Program Files (x86)\Microchip\xc8\v2.00\pic\include\pic16f887.h"
   172                           PIE2 equ 08Dh ;# 
   173  008D                     # 1817 "C:\Program Files (x86)\Microchip\xc8\v2.00\pic\include\pic16f887.h"
   174                           PCON equ 08Eh ;# 
   175  008E                     # 1864 "C:\Program Files (x86)\Microchip\xc8\v2.00\pic\include\pic16f887.h"
   176                           OSCCON equ 08Fh ;# 
   177  008F                     # 1929 "C:\Program Files (x86)\Microchip\xc8\v2.00\pic\include\pic16f887.h"
   178                           OSCTUNE equ 090h ;# 
   179  0090                     # 1981 "C:\Program Files (x86)\Microchip\xc8\v2.00\pic\include\pic16f887.h"
   180                           SSPCON2 equ 091h ;# 
   181  0091                     # 2043 "C:\Program Files (x86)\Microchip\xc8\v2.00\pic\include\pic16f887.h"
   182                           PR2 equ 092h ;# 
   183  0092                     # 2050 "C:\Program Files (x86)\Microchip\xc8\v2.00\pic\include\pic16f887.h"
   184                           SSPADD equ 093h ;# 
   185  0093                     # 2057 "C:\Program Files (x86)\Microchip\xc8\v2.00\pic\include\pic16f887.h"
   186                           SSPMSK equ 093h ;# 
   187  0093                     # 2062 "C:\Program Files (x86)\Microchip\xc8\v2.00\pic\include\pic16f887.h"
   188                           MSK equ 093h ;# 
   189  0093                     # 2179 "C:\Program Files (x86)\Microchip\xc8\v2.00\pic\include\pic16f887.h"
   190                           SSPSTAT equ 094h ;# 
   191  0094                     # 2348 "C:\Program Files (x86)\Microchip\xc8\v2.00\pic\include\pic16f887.h"
   192                           WPUB equ 095h ;# 
   193  0095                     # 2418 "C:\Program Files (x86)\Microchip\xc8\v2.00\pic\include\pic16f887.h"
   194                           IOCB equ 096h ;# 
   195  0096                     # 2488 "C:\Program Files (x86)\Microchip\xc8\v2.00\pic\include\pic16f887.h"
   196                           VRCON equ 097h ;# 
   197  0097                     # 2558 "C:\Program Files (x86)\Microchip\xc8\v2.00\pic\include\pic16f887.h"
   198                           TXSTA equ 098h ;# 
   199  0098                     # 2644 "C:\Program Files (x86)\Microchip\xc8\v2.00\pic\include\pic16f887.h"
   200                           SPBRG equ 099h ;# 
   201  0099                     # 2706 "C:\Program Files (x86)\Microchip\xc8\v2.00\pic\include\pic16f887.h"
   202                           SPBRGH equ 09Ah ;# 
   203  009A                     # 2776 "C:\Program Files (x86)\Microchip\xc8\v2.00\pic\include\pic16f887.h"
   204                           PWM1CON equ 09Bh ;# 
   205  009B                     # 2846 "C:\Program Files (x86)\Microchip\xc8\v2.00\pic\include\pic16f887.h"
   206                           ECCPAS equ 09Ch ;# 
   207  009C                     # 2928 "C:\Program Files (x86)\Microchip\xc8\v2.00\pic\include\pic16f887.h"
   208                           PSTRCON equ 09Dh ;# 
   209  009D                     # 2972 "C:\Program Files (x86)\Microchip\xc8\v2.00\pic\include\pic16f887.h"
   210                           ADRESL equ 09Eh ;# 
   211  009E                     # 2979 "C:\Program Files (x86)\Microchip\xc8\v2.00\pic\include\pic16f887.h"
   212                           ADCON1 equ 09Fh ;# 
   213  009F                     # 3013 "C:\Program Files (x86)\Microchip\xc8\v2.00\pic\include\pic16f887.h"
   214                           WDTCON equ 0105h ;# 
   215  0105                     # 3066 "C:\Program Files (x86)\Microchip\xc8\v2.00\pic\include\pic16f887.h"
   216                           CM1CON0 equ 0107h ;# 
   217  0107                     # 3131 "C:\Program Files (x86)\Microchip\xc8\v2.00\pic\include\pic16f887.h"
   218                           CM2CON0 equ 0108h ;# 
   219  0108                     # 3196 "C:\Program Files (x86)\Microchip\xc8\v2.00\pic\include\pic16f887.h"
   220                           CM2CON1 equ 0109h ;# 
   221  0109                     # 3247 "C:\Program Files (x86)\Microchip\xc8\v2.00\pic\include\pic16f887.h"
   222                           EEDATA equ 010Ch ;# 
   223  010C                     # 3252 "C:\Program Files (x86)\Microchip\xc8\v2.00\pic\include\pic16f887.h"
   224                           EEDAT equ 010Ch ;# 
   225  010C                     # 3259 "C:\Program Files (x86)\Microchip\xc8\v2.00\pic\include\pic16f887.h"
   226                           EEADR equ 010Dh ;# 
   227  010D                     # 3266 "C:\Program Files (x86)\Microchip\xc8\v2.00\pic\include\pic16f887.h"
   228                           EEDATH equ 010Eh ;# 
   229  010E                     # 3273 "C:\Program Files (x86)\Microchip\xc8\v2.00\pic\include\pic16f887.h"
   230                           EEADRH equ 010Fh ;# 
   231  010F                     # 3280 "C:\Program Files (x86)\Microchip\xc8\v2.00\pic\include\pic16f887.h"
   232                           SRCON equ 0185h ;# 
   233  0185                     # 3337 "C:\Program Files (x86)\Microchip\xc8\v2.00\pic\include\pic16f887.h"
   234                           BAUDCTL equ 0187h ;# 
   235  0187                     # 3389 "C:\Program Files (x86)\Microchip\xc8\v2.00\pic\include\pic16f887.h"
   236                           ANSEL equ 0188h ;# 
   237  0188                     # 3451 "C:\Program Files (x86)\Microchip\xc8\v2.00\pic\include\pic16f887.h"
   238                           ANSELH equ 0189h ;# 
   239  0189                     # 3501 "C:\Program Files (x86)\Microchip\xc8\v2.00\pic\include\pic16f887.h"
   240                           EECON1 equ 018Ch ;# 
   241  018C                     # 3546 "C:\Program Files (x86)\Microchip\xc8\v2.00\pic\include\pic16f887.h"
   242                           EECON2 equ 018Dh ;# 
   243  018D                     # 54 "C:\Program Files (x86)\Microchip\xc8\v2.00\pic\include\pic16f887.h"
   244                           INDF equ 00h ;# 
   245  0000                     # 61 "C:\Program Files (x86)\Microchip\xc8\v2.00\pic\include\pic16f887.h"
   246                           TMR0 equ 01h ;# 
   247  0001                     # 68 "C:\Program Files (x86)\Microchip\xc8\v2.00\pic\include\pic16f887.h"
   248                           PCL equ 02h ;# 
   249  0002                     # 75 "C:\Program Files (x86)\Microchip\xc8\v2.00\pic\include\pic16f887.h"
   250                           STATUS equ 03h ;# 
   251  0003                     # 161 "C:\Program Files (x86)\Microchip\xc8\v2.00\pic\include\pic16f887.h"
   252                           FSR equ 04h ;# 
   253  0004                     # 168 "C:\Program Files (x86)\Microchip\xc8\v2.00\pic\include\pic16f887.h"
   254                           PORTA equ 05h ;# 
   255  0005                     # 230 "C:\Program Files (x86)\Microchip\xc8\v2.00\pic\include\pic16f887.h"
   256                           PORTB equ 06h ;# 
   257  0006                     # 292 "C:\Program Files (x86)\Microchip\xc8\v2.00\pic\include\pic16f887.h"
   258                           PORTC equ 07h ;# 
   259  0007                     # 354 "C:\Program Files (x86)\Microchip\xc8\v2.00\pic\include\pic16f887.h"
   260                           PORTD equ 08h ;# 
   261  0008                     # 416 "C:\Program Files (x86)\Microchip\xc8\v2.00\pic\include\pic16f887.h"
   262                           PORTE equ 09h ;# 
   263  0009                     # 454 "C:\Program Files (x86)\Microchip\xc8\v2.00\pic\include\pic16f887.h"
   264                           PCLATH equ 0Ah ;# 
   265  000A                     # 461 "C:\Program Files (x86)\Microchip\xc8\v2.00\pic\include\pic16f887.h"
   266                           INTCON equ 0Bh ;# 
   267  000B                     # 539 "C:\Program Files (x86)\Microchip\xc8\v2.00\pic\include\pic16f887.h"
   268                           PIR1 equ 0Ch ;# 
   269  000C                     # 595 "C:\Program Files (x86)\Microchip\xc8\v2.00\pic\include\pic16f887.h"
   270                           PIR2 equ 0Dh ;# 
   271  000D                     # 652 "C:\Program Files (x86)\Microchip\xc8\v2.00\pic\include\pic16f887.h"
   272                           TMR1 equ 0Eh ;# 
   273  000E                     # 659 "C:\Program Files (x86)\Microchip\xc8\v2.00\pic\include\pic16f887.h"
   274                           TMR1L equ 0Eh ;# 
   275  000E                     # 666 "C:\Program Files (x86)\Microchip\xc8\v2.00\pic\include\pic16f887.h"
   276                           TMR1H equ 0Fh ;# 
   277  000F                     # 673 "C:\Program Files (x86)\Microchip\xc8\v2.00\pic\include\pic16f887.h"
   278                           T1CON equ 010h ;# 
   279  0010                     # 767 "C:\Program Files (x86)\Microchip\xc8\v2.00\pic\include\pic16f887.h"
   280                           TMR2 equ 011h ;# 
   281  0011                     # 774 "C:\Program Files (x86)\Microchip\xc8\v2.00\pic\include\pic16f887.h"
   282                           T2CON equ 012h ;# 
   283  0012                     # 845 "C:\Program Files (x86)\Microchip\xc8\v2.00\pic\include\pic16f887.h"
   284                           SSPBUF equ 013h ;# 
   285  0013                     # 852 "C:\Program Files (x86)\Microchip\xc8\v2.00\pic\include\pic16f887.h"
   286                           SSPCON equ 014h ;# 
   287  0014                     # 922 "C:\Program Files (x86)\Microchip\xc8\v2.00\pic\include\pic16f887.h"
   288                           CCPR1 equ 015h ;# 
   289  0015                     # 929 "C:\Program Files (x86)\Microchip\xc8\v2.00\pic\include\pic16f887.h"
   290                           CCPR1L equ 015h ;# 
   291  0015                     # 936 "C:\Program Files (x86)\Microchip\xc8\v2.00\pic\include\pic16f887.h"
   292                           CCPR1H equ 016h ;# 
   293  0016                     # 943 "C:\Program Files (x86)\Microchip\xc8\v2.00\pic\include\pic16f887.h"
   294                           CCP1CON equ 017h ;# 
   295  0017                     # 1040 "C:\Program Files (x86)\Microchip\xc8\v2.00\pic\include\pic16f887.h"
   296                           RCSTA equ 018h ;# 
   297  0018                     # 1135 "C:\Program Files (x86)\Microchip\xc8\v2.00\pic\include\pic16f887.h"
   298                           TXREG equ 019h ;# 
   299  0019                     # 1142 "C:\Program Files (x86)\Microchip\xc8\v2.00\pic\include\pic16f887.h"
   300                           RCREG equ 01Ah ;# 
   301  001A                     # 1149 "C:\Program Files (x86)\Microchip\xc8\v2.00\pic\include\pic16f887.h"
   302                           CCPR2 equ 01Bh ;# 
   303  001B                     # 1156 "C:\Program Files (x86)\Microchip\xc8\v2.00\pic\include\pic16f887.h"
   304                           CCPR2L equ 01Bh ;# 
   305  001B                     # 1163 "C:\Program Files (x86)\Microchip\xc8\v2.00\pic\include\pic16f887.h"
   306                           CCPR2H equ 01Ch ;# 
   307  001C                     # 1170 "C:\Program Files (x86)\Microchip\xc8\v2.00\pic\include\pic16f887.h"
   308                           CCP2CON equ 01Dh ;# 
   309  001D                     # 1240 "C:\Program Files (x86)\Microchip\xc8\v2.00\pic\include\pic16f887.h"
   310                           ADRESH equ 01Eh ;# 
   311  001E                     # 1247 "C:\Program Files (x86)\Microchip\xc8\v2.00\pic\include\pic16f887.h"
   312                           ADCON0 equ 01Fh ;# 
   313  001F                     # 1348 "C:\Program Files (x86)\Microchip\xc8\v2.00\pic\include\pic16f887.h"
   314                           OPTION_REG equ 081h ;# 
   315  0081                     # 1418 "C:\Program Files (x86)\Microchip\xc8\v2.00\pic\include\pic16f887.h"
   316                           TRISA equ 085h ;# 
   317  0085                     # 1480 "C:\Program Files (x86)\Microchip\xc8\v2.00\pic\include\pic16f887.h"
   318                           TRISB equ 086h ;# 
   319  0086                     # 1542 "C:\Program Files (x86)\Microchip\xc8\v2.00\pic\include\pic16f887.h"
   320                           TRISC equ 087h ;# 
   321  0087                     # 1604 "C:\Program Files (x86)\Microchip\xc8\v2.00\pic\include\pic16f887.h"
   322                           TRISD equ 088h ;# 
   323  0088                     # 1666 "C:\Program Files (x86)\Microchip\xc8\v2.00\pic\include\pic16f887.h"
   324                           TRISE equ 089h ;# 
   325  0089                     # 1704 "C:\Program Files (x86)\Microchip\xc8\v2.00\pic\include\pic16f887.h"
   326                           PIE1 equ 08Ch ;# 
   327  008C                     # 1760 "C:\Program Files (x86)\Microchip\xc8\v2.00\pic\include\pic16f887.h"
   328                           PIE2 equ 08Dh ;# 
   329  008D                     # 1817 "C:\Program Files (x86)\Microchip\xc8\v2.00\pic\include\pic16f887.h"
   330                           PCON equ 08Eh ;# 
   331  008E                     # 1864 "C:\Program Files (x86)\Microchip\xc8\v2.00\pic\include\pic16f887.h"
   332                           OSCCON equ 08Fh ;# 
   333  008F                     # 1929 "C:\Program Files (x86)\Microchip\xc8\v2.00\pic\include\pic16f887.h"
   334                           OSCTUNE equ 090h ;# 
   335  0090                     # 1981 "C:\Program Files (x86)\Microchip\xc8\v2.00\pic\include\pic16f887.h"
   336                           SSPCON2 equ 091h ;# 
   337  0091                     # 2043 "C:\Program Files (x86)\Microchip\xc8\v2.00\pic\include\pic16f887.h"
   338                           PR2 equ 092h ;# 
   339  0092                     # 2050 "C:\Program Files (x86)\Microchip\xc8\v2.00\pic\include\pic16f887.h"
   340                           SSPADD equ 093h ;# 
   341  0093                     # 2057 "C:\Program Files (x86)\Microchip\xc8\v2.00\pic\include\pic16f887.h"
   342                           SSPMSK equ 093h ;# 
   343  0093                     # 2062 "C:\Program Files (x86)\Microchip\xc8\v2.00\pic\include\pic16f887.h"
   344                           MSK equ 093h ;# 
   345  0093                     # 2179 "C:\Program Files (x86)\Microchip\xc8\v2.00\pic\include\pic16f887.h"
   346                           SSPSTAT equ 094h ;# 
   347  0094                     # 2348 "C:\Program Files (x86)\Microchip\xc8\v2.00\pic\include\pic16f887.h"
   348                           WPUB equ 095h ;# 
   349  0095                     # 2418 "C:\Program Files (x86)\Microchip\xc8\v2.00\pic\include\pic16f887.h"
   350                           IOCB equ 096h ;# 
   351  0096                     # 2488 "C:\Program Files (x86)\Microchip\xc8\v2.00\pic\include\pic16f887.h"
   352                           VRCON equ 097h ;# 
   353  0097                     # 2558 "C:\Program Files (x86)\Microchip\xc8\v2.00\pic\include\pic16f887.h"
   354                           TXSTA equ 098h ;# 
   355  0098                     # 2644 "C:\Program Files (x86)\Microchip\xc8\v2.00\pic\include\pic16f887.h"
   356                           SPBRG equ 099h ;# 
   357  0099                     # 2706 "C:\Program Files (x86)\Microchip\xc8\v2.00\pic\include\pic16f887.h"
   358                           SPBRGH equ 09Ah ;# 
   359  009A                     # 2776 "C:\Program Files (x86)\Microchip\xc8\v2.00\pic\include\pic16f887.h"
   360                           PWM1CON equ 09Bh ;# 
   361  009B                     # 2846 "C:\Program Files (x86)\Microchip\xc8\v2.00\pic\include\pic16f887.h"
   362                           ECCPAS equ 09Ch ;# 
   363  009C                     # 2928 "C:\Program Files (x86)\Microchip\xc8\v2.00\pic\include\pic16f887.h"
   364                           PSTRCON equ 09Dh ;# 
   365  009D                     # 2972 "C:\Program Files (x86)\Microchip\xc8\v2.00\pic\include\pic16f887.h"
   366                           ADRESL equ 09Eh ;# 
   367  009E                     # 2979 "C:\Program Files (x86)\Microchip\xc8\v2.00\pic\include\pic16f887.h"
   368                           ADCON1 equ 09Fh ;# 
   369  009F                     # 3013 "C:\Program Files (x86)\Microchip\xc8\v2.00\pic\include\pic16f887.h"
   370                           WDTCON equ 0105h ;# 
   371  0105                     # 3066 "C:\Program Files (x86)\Microchip\xc8\v2.00\pic\include\pic16f887.h"
   372                           CM1CON0 equ 0107h ;# 
   373  0107                     # 3131 "C:\Program Files (x86)\Microchip\xc8\v2.00\pic\include\pic16f887.h"
   374                           CM2CON0 equ 0108h ;# 
   375  0108                     # 3196 "C:\Program Files (x86)\Microchip\xc8\v2.00\pic\include\pic16f887.h"
   376                           CM2CON1 equ 0109h ;# 
   377  0109                     # 3247 "C:\Program Files (x86)\Microchip\xc8\v2.00\pic\include\pic16f887.h"
   378                           EEDATA equ 010Ch ;# 
   379  010C                     # 3252 "C:\Program Files (x86)\Microchip\xc8\v2.00\pic\include\pic16f887.h"
   380                           EEDAT equ 010Ch ;# 
   381  010C                     # 3259 "C:\Program Files (x86)\Microchip\xc8\v2.00\pic\include\pic16f887.h"
   382                           EEADR equ 010Dh ;# 
   383  010D                     # 3266 "C:\Program Files (x86)\Microchip\xc8\v2.00\pic\include\pic16f887.h"
   384                           EEDATH equ 010Eh ;# 
   385  010E                     # 3273 "C:\Program Files (x86)\Microchip\xc8\v2.00\pic\include\pic16f887.h"
   386                           EEADRH equ 010Fh ;# 
   387  010F                     # 3280 "C:\Program Files (x86)\Microchip\xc8\v2.00\pic\include\pic16f887.h"
   388                           SRCON equ 0185h ;# 
   389  0185                     # 3337 "C:\Program Files (x86)\Microchip\xc8\v2.00\pic\include\pic16f887.h"
   390                           BAUDCTL equ 0187h ;# 
   391  0187                     # 3389 "C:\Program Files (x86)\Microchip\xc8\v2.00\pic\include\pic16f887.h"
   392                           ANSEL equ 0188h ;# 
   393  0188                     # 3451 "C:\Program Files (x86)\Microchip\xc8\v2.00\pic\include\pic16f887.h"
   394                           ANSELH equ 0189h ;# 
   395  0189                     # 3501 "C:\Program Files (x86)\Microchip\xc8\v2.00\pic\include\pic16f887.h"
   396                           EECON1 equ 018Ch ;# 
   397  018C                     # 3546 "C:\Program Files (x86)\Microchip\xc8\v2.00\pic\include\pic16f887.h"
   398                           EECON2 equ 018Dh ;# 
   399  018D                     # 54 "C:\Program Files (x86)\Microchip\xc8\v2.00\pic\include\pic16f887.h"
   400                           INDF equ 00h ;# 
   401  0000                     # 61 "C:\Program Files (x86)\Microchip\xc8\v2.00\pic\include\pic16f887.h"
   402                           TMR0 equ 01h ;# 
   403  0001                     # 68 "C:\Program Files (x86)\Microchip\xc8\v2.00\pic\include\pic16f887.h"
   404                           PCL equ 02h ;# 
   405  0002                     # 75 "C:\Program Files (x86)\Microchip\xc8\v2.00\pic\include\pic16f887.h"
   406                           STATUS equ 03h ;# 
   407  0003                     # 161 "C:\Program Files (x86)\Microchip\xc8\v2.00\pic\include\pic16f887.h"
   408                           FSR equ 04h ;# 
   409  0004                     # 168 "C:\Program Files (x86)\Microchip\xc8\v2.00\pic\include\pic16f887.h"
   410                           PORTA equ 05h ;# 
   411  0005                     # 230 "C:\Program Files (x86)\Microchip\xc8\v2.00\pic\include\pic16f887.h"
   412                           PORTB equ 06h ;# 
   413  0006                     # 292 "C:\Program Files (x86)\Microchip\xc8\v2.00\pic\include\pic16f887.h"
   414                           PORTC equ 07h ;# 
   415  0007                     # 354 "C:\Program Files (x86)\Microchip\xc8\v2.00\pic\include\pic16f887.h"
   416                           PORTD equ 08h ;# 
   417  0008                     # 416 "C:\Program Files (x86)\Microchip\xc8\v2.00\pic\include\pic16f887.h"
   418                           PORTE equ 09h ;# 
   419  0009                     # 454 "C:\Program Files (x86)\Microchip\xc8\v2.00\pic\include\pic16f887.h"
   420                           PCLATH equ 0Ah ;# 
   421  000A                     # 461 "C:\Program Files (x86)\Microchip\xc8\v2.00\pic\include\pic16f887.h"
   422                           INTCON equ 0Bh ;# 
   423  000B                     # 539 "C:\Program Files (x86)\Microchip\xc8\v2.00\pic\include\pic16f887.h"
   424                           PIR1 equ 0Ch ;# 
   425  000C                     # 595 "C:\Program Files (x86)\Microchip\xc8\v2.00\pic\include\pic16f887.h"
   426                           PIR2 equ 0Dh ;# 
   427  000D                     # 652 "C:\Program Files (x86)\Microchip\xc8\v2.00\pic\include\pic16f887.h"
   428                           TMR1 equ 0Eh ;# 
   429  000E                     # 659 "C:\Program Files (x86)\Microchip\xc8\v2.00\pic\include\pic16f887.h"
   430                           TMR1L equ 0Eh ;# 
   431  000E                     # 666 "C:\Program Files (x86)\Microchip\xc8\v2.00\pic\include\pic16f887.h"
   432                           TMR1H equ 0Fh ;# 
   433  000F                     # 673 "C:\Program Files (x86)\Microchip\xc8\v2.00\pic\include\pic16f887.h"
   434                           T1CON equ 010h ;# 
   435  0010                     # 767 "C:\Program Files (x86)\Microchip\xc8\v2.00\pic\include\pic16f887.h"
   436                           TMR2 equ 011h ;# 
   437  0011                     # 774 "C:\Program Files (x86)\Microchip\xc8\v2.00\pic\include\pic16f887.h"
   438                           T2CON equ 012h ;# 
   439  0012                     # 845 "C:\Program Files (x86)\Microchip\xc8\v2.00\pic\include\pic16f887.h"
   440                           SSPBUF equ 013h ;# 
   441  0013                     # 852 "C:\Program Files (x86)\Microchip\xc8\v2.00\pic\include\pic16f887.h"
   442                           SSPCON equ 014h ;# 
   443  0014                     # 922 "C:\Program Files (x86)\Microchip\xc8\v2.00\pic\include\pic16f887.h"
   444                           CCPR1 equ 015h ;# 
   445  0015                     # 929 "C:\Program Files (x86)\Microchip\xc8\v2.00\pic\include\pic16f887.h"
   446                           CCPR1L equ 015h ;# 
   447  0015                     # 936 "C:\Program Files (x86)\Microchip\xc8\v2.00\pic\include\pic16f887.h"
   448                           CCPR1H equ 016h ;# 
   449  0016                     # 943 "C:\Program Files (x86)\Microchip\xc8\v2.00\pic\include\pic16f887.h"
   450                           CCP1CON equ 017h ;# 
   451  0017                     # 1040 "C:\Program Files (x86)\Microchip\xc8\v2.00\pic\include\pic16f887.h"
   452                           RCSTA equ 018h ;# 
   453  0018                     # 1135 "C:\Program Files (x86)\Microchip\xc8\v2.00\pic\include\pic16f887.h"
   454                           TXREG equ 019h ;# 
   455  0019                     # 1142 "C:\Program Files (x86)\Microchip\xc8\v2.00\pic\include\pic16f887.h"
   456                           RCREG equ 01Ah ;# 
   457  001A                     # 1149 "C:\Program Files (x86)\Microchip\xc8\v2.00\pic\include\pic16f887.h"
   458                           CCPR2 equ 01Bh ;# 
   459  001B                     # 1156 "C:\Program Files (x86)\Microchip\xc8\v2.00\pic\include\pic16f887.h"
   460                           CCPR2L equ 01Bh ;# 
   461  001B                     # 1163 "C:\Program Files (x86)\Microchip\xc8\v2.00\pic\include\pic16f887.h"
   462                           CCPR2H equ 01Ch ;# 
   463  001C                     # 1170 "C:\Program Files (x86)\Microchip\xc8\v2.00\pic\include\pic16f887.h"
   464                           CCP2CON equ 01Dh ;# 
   465  001D                     # 1240 "C:\Program Files (x86)\Microchip\xc8\v2.00\pic\include\pic16f887.h"
   466                           ADRESH equ 01Eh ;# 
   467  001E                     # 1247 "C:\Program Files (x86)\Microchip\xc8\v2.00\pic\include\pic16f887.h"
   468                           ADCON0 equ 01Fh ;# 
   469  001F                     # 1348 "C:\Program Files (x86)\Microchip\xc8\v2.00\pic\include\pic16f887.h"
   470                           OPTION_REG equ 081h ;# 
   471  0081                     # 1418 "C:\Program Files (x86)\Microchip\xc8\v2.00\pic\include\pic16f887.h"
   472                           TRISA equ 085h ;# 
   473  0085                     # 1480 "C:\Program Files (x86)\Microchip\xc8\v2.00\pic\include\pic16f887.h"
   474                           TRISB equ 086h ;# 
   475  0086                     # 1542 "C:\Program Files (x86)\Microchip\xc8\v2.00\pic\include\pic16f887.h"
   476                           TRISC equ 087h ;# 
   477  0087                     # 1604 "C:\Program Files (x86)\Microchip\xc8\v2.00\pic\include\pic16f887.h"
   478                           TRISD equ 088h ;# 
   479  0088                     # 1666 "C:\Program Files (x86)\Microchip\xc8\v2.00\pic\include\pic16f887.h"
   480                           TRISE equ 089h ;# 
   481  0089                     # 1704 "C:\Program Files (x86)\Microchip\xc8\v2.00\pic\include\pic16f887.h"
   482                           PIE1 equ 08Ch ;# 
   483  008C                     # 1760 "C:\Program Files (x86)\Microchip\xc8\v2.00\pic\include\pic16f887.h"
   484                           PIE2 equ 08Dh ;# 
   485  008D                     # 1817 "C:\Program Files (x86)\Microchip\xc8\v2.00\pic\include\pic16f887.h"
   486                           PCON equ 08Eh ;# 
   487  008E                     # 1864 "C:\Program Files (x86)\Microchip\xc8\v2.00\pic\include\pic16f887.h"
   488                           OSCCON equ 08Fh ;# 
   489  008F                     # 1929 "C:\Program Files (x86)\Microchip\xc8\v2.00\pic\include\pic16f887.h"
   490                           OSCTUNE equ 090h ;# 
   491  0090                     # 1981 "C:\Program Files (x86)\Microchip\xc8\v2.00\pic\include\pic16f887.h"
   492                           SSPCON2 equ 091h ;# 
   493  0091                     # 2043 "C:\Program Files (x86)\Microchip\xc8\v2.00\pic\include\pic16f887.h"
   494                           PR2 equ 092h ;# 
   495  0092                     # 2050 "C:\Program Files (x86)\Microchip\xc8\v2.00\pic\include\pic16f887.h"
   496                           SSPADD equ 093h ;# 
   497  0093                     # 2057 "C:\Program Files (x86)\Microchip\xc8\v2.00\pic\include\pic16f887.h"
   498                           SSPMSK equ 093h ;# 
   499  0093                     # 2062 "C:\Program Files (x86)\Microchip\xc8\v2.00\pic\include\pic16f887.h"
   500                           MSK equ 093h ;# 
   501  0093                     # 2179 "C:\Program Files (x86)\Microchip\xc8\v2.00\pic\include\pic16f887.h"
   502                           SSPSTAT equ 094h ;# 
   503  0094                     # 2348 "C:\Program Files (x86)\Microchip\xc8\v2.00\pic\include\pic16f887.h"
   504                           WPUB equ 095h ;# 
   505  0095                     # 2418 "C:\Program Files (x86)\Microchip\xc8\v2.00\pic\include\pic16f887.h"
   506                           IOCB equ 096h ;# 
   507  0096                     # 2488 "C:\Program Files (x86)\Microchip\xc8\v2.00\pic\include\pic16f887.h"
   508                           VRCON equ 097h ;# 
   509  0097                     # 2558 "C:\Program Files (x86)\Microchip\xc8\v2.00\pic\include\pic16f887.h"
   510                           TXSTA equ 098h ;# 
   511  0098                     # 2644 "C:\Program Files (x86)\Microchip\xc8\v2.00\pic\include\pic16f887.h"
   512                           SPBRG equ 099h ;# 
   513  0099                     # 2706 "C:\Program Files (x86)\Microchip\xc8\v2.00\pic\include\pic16f887.h"
   514                           SPBRGH equ 09Ah ;# 
   515  009A                     # 2776 "C:\Program Files (x86)\Microchip\xc8\v2.00\pic\include\pic16f887.h"
   516                           PWM1CON equ 09Bh ;# 
   517  009B                     # 2846 "C:\Program Files (x86)\Microchip\xc8\v2.00\pic\include\pic16f887.h"
   518                           ECCPAS equ 09Ch ;# 
   519  009C                     # 2928 "C:\Program Files (x86)\Microchip\xc8\v2.00\pic\include\pic16f887.h"
   520                           PSTRCON equ 09Dh ;# 
   521  009D                     # 2972 "C:\Program Files (x86)\Microchip\xc8\v2.00\pic\include\pic16f887.h"
   522                           ADRESL equ 09Eh ;# 
   523  009E                     # 2979 "C:\Program Files (x86)\Microchip\xc8\v2.00\pic\include\pic16f887.h"
   524                           ADCON1 equ 09Fh ;# 
   525  009F                     # 3013 "C:\Program Files (x86)\Microchip\xc8\v2.00\pic\include\pic16f887.h"
   526                           WDTCON equ 0105h ;# 
   527  0105                     # 3066 "C:\Program Files (x86)\Microchip\xc8\v2.00\pic\include\pic16f887.h"
   528                           CM1CON0 equ 0107h ;# 
   529  0107                     # 3131 "C:\Program Files (x86)\Microchip\xc8\v2.00\pic\include\pic16f887.h"
   530                           CM2CON0 equ 0108h ;# 
   531  0108                     # 3196 "C:\Program Files (x86)\Microchip\xc8\v2.00\pic\include\pic16f887.h"
   532                           CM2CON1 equ 0109h ;# 
   533  0109                     # 3247 "C:\Program Files (x86)\Microchip\xc8\v2.00\pic\include\pic16f887.h"
   534                           EEDATA equ 010Ch ;# 
   535  010C                     # 3252 "C:\Program Files (x86)\Microchip\xc8\v2.00\pic\include\pic16f887.h"
   536                           EEDAT equ 010Ch ;# 
   537  010C                     # 3259 "C:\Program Files (x86)\Microchip\xc8\v2.00\pic\include\pic16f887.h"
   538                           EEADR equ 010Dh ;# 
   539  010D                     # 3266 "C:\Program Files (x86)\Microchip\xc8\v2.00\pic\include\pic16f887.h"
   540                           EEDATH equ 010Eh ;# 
   541  010E                     # 3273 "C:\Program Files (x86)\Microchip\xc8\v2.00\pic\include\pic16f887.h"
   542                           EEADRH equ 010Fh ;# 
   543  010F                     # 3280 "C:\Program Files (x86)\Microchip\xc8\v2.00\pic\include\pic16f887.h"
   544                           SRCON equ 0185h ;# 
   545  0185                     # 3337 "C:\Program Files (x86)\Microchip\xc8\v2.00\pic\include\pic16f887.h"
   546                           BAUDCTL equ 0187h ;# 
   547  0187                     # 3389 "C:\Program Files (x86)\Microchip\xc8\v2.00\pic\include\pic16f887.h"
   548                           ANSEL equ 0188h ;# 
   549  0188                     # 3451 "C:\Program Files (x86)\Microchip\xc8\v2.00\pic\include\pic16f887.h"
   550                           ANSELH equ 0189h ;# 
   551  0189                     # 3501 "C:\Program Files (x86)\Microchip\xc8\v2.00\pic\include\pic16f887.h"
   552                           EECON1 equ 018Ch ;# 
   553  018C                     # 3546 "C:\Program Files (x86)\Microchip\xc8\v2.00\pic\include\pic16f887.h"
   554                           EECON2 equ 018Dh ;# 
   555  018D                     # 54 "C:\Program Files (x86)\Microchip\xc8\v2.00\pic\include\pic16f887.h"
   556                           INDF equ 00h ;# 
   557  0000                     # 61 "C:\Program Files (x86)\Microchip\xc8\v2.00\pic\include\pic16f887.h"
   558                           TMR0 equ 01h ;# 
   559  0001                     # 68 "C:\Program Files (x86)\Microchip\xc8\v2.00\pic\include\pic16f887.h"
   560                           PCL equ 02h ;# 
   561  0002                     # 75 "C:\Program Files (x86)\Microchip\xc8\v2.00\pic\include\pic16f887.h"
   562                           STATUS equ 03h ;# 
   563  0003                     # 161 "C:\Program Files (x86)\Microchip\xc8\v2.00\pic\include\pic16f887.h"
   564                           FSR equ 04h ;# 
   565  0004                     # 168 "C:\Program Files (x86)\Microchip\xc8\v2.00\pic\include\pic16f887.h"
   566                           PORTA equ 05h ;# 
   567  0005                     # 230 "C:\Program Files (x86)\Microchip\xc8\v2.00\pic\include\pic16f887.h"
   568                           PORTB equ 06h ;# 
   569  0006                     # 292 "C:\Program Files (x86)\Microchip\xc8\v2.00\pic\include\pic16f887.h"
   570                           PORTC equ 07h ;# 
   571  0007                     # 354 "C:\Program Files (x86)\Microchip\xc8\v2.00\pic\include\pic16f887.h"
   572                           PORTD equ 08h ;# 
   573  0008                     # 416 "C:\Program Files (x86)\Microchip\xc8\v2.00\pic\include\pic16f887.h"
   574                           PORTE equ 09h ;# 
   575  0009                     # 454 "C:\Program Files (x86)\Microchip\xc8\v2.00\pic\include\pic16f887.h"
   576                           PCLATH equ 0Ah ;# 
   577  000A                     # 461 "C:\Program Files (x86)\Microchip\xc8\v2.00\pic\include\pic16f887.h"
   578                           INTCON equ 0Bh ;# 
   579  000B                     # 539 "C:\Program Files (x86)\Microchip\xc8\v2.00\pic\include\pic16f887.h"
   580                           PIR1 equ 0Ch ;# 
   581  000C                     # 595 "C:\Program Files (x86)\Microchip\xc8\v2.00\pic\include\pic16f887.h"
   582                           PIR2 equ 0Dh ;# 
   583  000D                     # 652 "C:\Program Files (x86)\Microchip\xc8\v2.00\pic\include\pic16f887.h"
   584                           TMR1 equ 0Eh ;# 
   585  000E                     # 659 "C:\Program Files (x86)\Microchip\xc8\v2.00\pic\include\pic16f887.h"
   586                           TMR1L equ 0Eh ;# 
   587  000E                     # 666 "C:\Program Files (x86)\Microchip\xc8\v2.00\pic\include\pic16f887.h"
   588                           TMR1H equ 0Fh ;# 
   589  000F                     # 673 "C:\Program Files (x86)\Microchip\xc8\v2.00\pic\include\pic16f887.h"
   590                           T1CON equ 010h ;# 
   591  0010                     # 767 "C:\Program Files (x86)\Microchip\xc8\v2.00\pic\include\pic16f887.h"
   592                           TMR2 equ 011h ;# 
   593  0011                     # 774 "C:\Program Files (x86)\Microchip\xc8\v2.00\pic\include\pic16f887.h"
   594                           T2CON equ 012h ;# 
   595  0012                     # 845 "C:\Program Files (x86)\Microchip\xc8\v2.00\pic\include\pic16f887.h"
   596                           SSPBUF equ 013h ;# 
   597  0013                     # 852 "C:\Program Files (x86)\Microchip\xc8\v2.00\pic\include\pic16f887.h"
   598                           SSPCON equ 014h ;# 
   599  0014                     # 922 "C:\Program Files (x86)\Microchip\xc8\v2.00\pic\include\pic16f887.h"
   600                           CCPR1 equ 015h ;# 
   601  0015                     # 929 "C:\Program Files (x86)\Microchip\xc8\v2.00\pic\include\pic16f887.h"
   602                           CCPR1L equ 015h ;# 
   603  0015                     # 936 "C:\Program Files (x86)\Microchip\xc8\v2.00\pic\include\pic16f887.h"
   604                           CCPR1H equ 016h ;# 
   605  0016                     # 943 "C:\Program Files (x86)\Microchip\xc8\v2.00\pic\include\pic16f887.h"
   606                           CCP1CON equ 017h ;# 
   607  0017                     # 1040 "C:\Program Files (x86)\Microchip\xc8\v2.00\pic\include\pic16f887.h"
   608                           RCSTA equ 018h ;# 
   609  0018                     # 1135 "C:\Program Files (x86)\Microchip\xc8\v2.00\pic\include\pic16f887.h"
   610                           TXREG equ 019h ;# 
   611  0019                     # 1142 "C:\Program Files (x86)\Microchip\xc8\v2.00\pic\include\pic16f887.h"
   612                           RCREG equ 01Ah ;# 
   613  001A                     # 1149 "C:\Program Files (x86)\Microchip\xc8\v2.00\pic\include\pic16f887.h"
   614                           CCPR2 equ 01Bh ;# 
   615  001B                     # 1156 "C:\Program Files (x86)\Microchip\xc8\v2.00\pic\include\pic16f887.h"
   616                           CCPR2L equ 01Bh ;# 
   617  001B                     # 1163 "C:\Program Files (x86)\Microchip\xc8\v2.00\pic\include\pic16f887.h"
   618                           CCPR2H equ 01Ch ;# 
   619  001C                     # 1170 "C:\Program Files (x86)\Microchip\xc8\v2.00\pic\include\pic16f887.h"
   620                           CCP2CON equ 01Dh ;# 
   621  001D                     # 1240 "C:\Program Files (x86)\Microchip\xc8\v2.00\pic\include\pic16f887.h"
   622                           ADRESH equ 01Eh ;# 
   623  001E                     # 1247 "C:\Program Files (x86)\Microchip\xc8\v2.00\pic\include\pic16f887.h"
   624                           ADCON0 equ 01Fh ;# 
   625  001F                     # 1348 "C:\Program Files (x86)\Microchip\xc8\v2.00\pic\include\pic16f887.h"
   626                           OPTION_REG equ 081h ;# 
   627  0081                     # 1418 "C:\Program Files (x86)\Microchip\xc8\v2.00\pic\include\pic16f887.h"
   628                           TRISA equ 085h ;# 
   629  0085                     # 1480 "C:\Program Files (x86)\Microchip\xc8\v2.00\pic\include\pic16f887.h"
   630                           TRISB equ 086h ;# 
   631  0086                     # 1542 "C:\Program Files (x86)\Microchip\xc8\v2.00\pic\include\pic16f887.h"
   632                           TRISC equ 087h ;# 
   633  0087                     # 1604 "C:\Program Files (x86)\Microchip\xc8\v2.00\pic\include\pic16f887.h"
   634                           TRISD equ 088h ;# 
   635  0088                     # 1666 "C:\Program Files (x86)\Microchip\xc8\v2.00\pic\include\pic16f887.h"
   636                           TRISE equ 089h ;# 
   637  0089                     # 1704 "C:\Program Files (x86)\Microchip\xc8\v2.00\pic\include\pic16f887.h"
   638                           PIE1 equ 08Ch ;# 
   639  008C                     # 1760 "C:\Program Files (x86)\Microchip\xc8\v2.00\pic\include\pic16f887.h"
   640                           PIE2 equ 08Dh ;# 
   641  008D                     # 1817 "C:\Program Files (x86)\Microchip\xc8\v2.00\pic\include\pic16f887.h"
   642                           PCON equ 08Eh ;# 
   643  008E                     # 1864 "C:\Program Files (x86)\Microchip\xc8\v2.00\pic\include\pic16f887.h"
   644                           OSCCON equ 08Fh ;# 
   645  008F                     # 1929 "C:\Program Files (x86)\Microchip\xc8\v2.00\pic\include\pic16f887.h"
   646                           OSCTUNE equ 090h ;# 
   647  0090                     # 1981 "C:\Program Files (x86)\Microchip\xc8\v2.00\pic\include\pic16f887.h"
   648                           SSPCON2 equ 091h ;# 
   649  0091                     # 2043 "C:\Program Files (x86)\Microchip\xc8\v2.00\pic\include\pic16f887.h"
   650                           PR2 equ 092h ;# 
   651  0092                     # 2050 "C:\Program Files (x86)\Microchip\xc8\v2.00\pic\include\pic16f887.h"
   652                           SSPADD equ 093h ;# 
   653  0093                     # 2057 "C:\Program Files (x86)\Microchip\xc8\v2.00\pic\include\pic16f887.h"
   654                           SSPMSK equ 093h ;# 
   655  0093                     # 2062 "C:\Program Files (x86)\Microchip\xc8\v2.00\pic\include\pic16f887.h"
   656                           MSK equ 093h ;# 
   657  0093                     # 2179 "C:\Program Files (x86)\Microchip\xc8\v2.00\pic\include\pic16f887.h"
   658                           SSPSTAT equ 094h ;# 
   659  0094                     # 2348 "C:\Program Files (x86)\Microchip\xc8\v2.00\pic\include\pic16f887.h"
   660                           WPUB equ 095h ;# 
   661  0095                     # 2418 "C:\Program Files (x86)\Microchip\xc8\v2.00\pic\include\pic16f887.h"
   662                           IOCB equ 096h ;# 
   663  0096                     # 2488 "C:\Program Files (x86)\Microchip\xc8\v2.00\pic\include\pic16f887.h"
   664                           VRCON equ 097h ;# 
   665  0097                     # 2558 "C:\Program Files (x86)\Microchip\xc8\v2.00\pic\include\pic16f887.h"
   666                           TXSTA equ 098h ;# 
   667  0098                     # 2644 "C:\Program Files (x86)\Microchip\xc8\v2.00\pic\include\pic16f887.h"
   668                           SPBRG equ 099h ;# 
   669  0099                     # 2706 "C:\Program Files (x86)\Microchip\xc8\v2.00\pic\include\pic16f887.h"
   670                           SPBRGH equ 09Ah ;# 
   671  009A                     # 2776 "C:\Program Files (x86)\Microchip\xc8\v2.00\pic\include\pic16f887.h"
   672                           PWM1CON equ 09Bh ;# 
   673  009B                     # 2846 "C:\Program Files (x86)\Microchip\xc8\v2.00\pic\include\pic16f887.h"
   674                           ECCPAS equ 09Ch ;# 
   675  009C                     # 2928 "C:\Program Files (x86)\Microchip\xc8\v2.00\pic\include\pic16f887.h"
   676                           PSTRCON equ 09Dh ;# 
   677  009D                     # 2972 "C:\Program Files (x86)\Microchip\xc8\v2.00\pic\include\pic16f887.h"
   678                           ADRESL equ 09Eh ;# 
   679  009E                     # 2979 "C:\Program Files (x86)\Microchip\xc8\v2.00\pic\include\pic16f887.h"
   680                           ADCON1 equ 09Fh ;# 
   681  009F                     # 3013 "C:\Program Files (x86)\Microchip\xc8\v2.00\pic\include\pic16f887.h"
   682                           WDTCON equ 0105h ;# 
   683  0105                     # 3066 "C:\Program Files (x86)\Microchip\xc8\v2.00\pic\include\pic16f887.h"
   684                           CM1CON0 equ 0107h ;# 
   685  0107                     # 3131 "C:\Program Files (x86)\Microchip\xc8\v2.00\pic\include\pic16f887.h"
   686                           CM2CON0 equ 0108h ;# 
   687  0108                     # 3196 "C:\Program Files (x86)\Microchip\xc8\v2.00\pic\include\pic16f887.h"
   688                           CM2CON1 equ 0109h ;# 
   689  0109                     # 3247 "C:\Program Files (x86)\Microchip\xc8\v2.00\pic\include\pic16f887.h"
   690                           EEDATA equ 010Ch ;# 
   691  010C                     # 3252 "C:\Program Files (x86)\Microchip\xc8\v2.00\pic\include\pic16f887.h"
   692                           EEDAT equ 010Ch ;# 
   693  010C                     # 3259 "C:\Program Files (x86)\Microchip\xc8\v2.00\pic\include\pic16f887.h"
   694                           EEADR equ 010Dh ;# 
   695  010D                     # 3266 "C:\Program Files (x86)\Microchip\xc8\v2.00\pic\include\pic16f887.h"
   696                           EEDATH equ 010Eh ;# 
   697  010E                     # 3273 "C:\Program Files (x86)\Microchip\xc8\v2.00\pic\include\pic16f887.h"
   698                           EEADRH equ 010Fh ;# 
   699  010F                     # 3280 "C:\Program Files (x86)\Microchip\xc8\v2.00\pic\include\pic16f887.h"
   700                           SRCON equ 0185h ;# 
   701  0185                     # 3337 "C:\Program Files (x86)\Microchip\xc8\v2.00\pic\include\pic16f887.h"
   702                           BAUDCTL equ 0187h ;# 
   703  0187                     # 3389 "C:\Program Files (x86)\Microchip\xc8\v2.00\pic\include\pic16f887.h"
   704                           ANSEL equ 0188h ;# 
   705  0188                     # 3451 "C:\Program Files (x86)\Microchip\xc8\v2.00\pic\include\pic16f887.h"
   706                           ANSELH equ 0189h ;# 
   707  0189                     # 3501 "C:\Program Files (x86)\Microchip\xc8\v2.00\pic\include\pic16f887.h"
   708                           EECON1 equ 018Ch ;# 
   709  018C                     # 3546 "C:\Program Files (x86)\Microchip\xc8\v2.00\pic\include\pic16f887.h"
   710                           EECON2 equ 018Dh ;# 
   711  018D                     # 54 "C:\Program Files (x86)\Microchip\xc8\v2.00\pic\include\pic16f887.h"
   712                           INDF equ 00h ;# 
   713  0000                     # 61 "C:\Program Files (x86)\Microchip\xc8\v2.00\pic\include\pic16f887.h"
   714                           TMR0 equ 01h ;# 
   715  0001                     # 68 "C:\Program Files (x86)\Microchip\xc8\v2.00\pic\include\pic16f887.h"
   716                           PCL equ 02h ;# 
   717  0002                     # 75 "C:\Program Files (x86)\Microchip\xc8\v2.00\pic\include\pic16f887.h"
   718                           STATUS equ 03h ;# 
   719  0003                     # 161 "C:\Program Files (x86)\Microchip\xc8\v2.00\pic\include\pic16f887.h"
   720                           FSR equ 04h ;# 
   721  0004                     # 168 "C:\Program Files (x86)\Microchip\xc8\v2.00\pic\include\pic16f887.h"
   722                           PORTA equ 05h ;# 
   723  0005                     # 230 "C:\Program Files (x86)\Microchip\xc8\v2.00\pic\include\pic16f887.h"
   724                           PORTB equ 06h ;# 
   725  0006                     # 292 "C:\Program Files (x86)\Microchip\xc8\v2.00\pic\include\pic16f887.h"
   726                           PORTC equ 07h ;# 
   727  0007                     # 354 "C:\Program Files (x86)\Microchip\xc8\v2.00\pic\include\pic16f887.h"
   728                           PORTD equ 08h ;# 
   729  0008                     # 416 "C:\Program Files (x86)\Microchip\xc8\v2.00\pic\include\pic16f887.h"
   730                           PORTE equ 09h ;# 
   731  0009                     # 454 "C:\Program Files (x86)\Microchip\xc8\v2.00\pic\include\pic16f887.h"
   732                           PCLATH equ 0Ah ;# 
   733  000A                     # 461 "C:\Program Files (x86)\Microchip\xc8\v2.00\pic\include\pic16f887.h"
   734                           INTCON equ 0Bh ;# 
   735  000B                     # 539 "C:\Program Files (x86)\Microchip\xc8\v2.00\pic\include\pic16f887.h"
   736                           PIR1 equ 0Ch ;# 
   737  000C                     # 595 "C:\Program Files (x86)\Microchip\xc8\v2.00\pic\include\pic16f887.h"
   738                           PIR2 equ 0Dh ;# 
   739  000D                     # 652 "C:\Program Files (x86)\Microchip\xc8\v2.00\pic\include\pic16f887.h"
   740                           TMR1 equ 0Eh ;# 
   741  000E                     # 659 "C:\Program Files (x86)\Microchip\xc8\v2.00\pic\include\pic16f887.h"
   742                           TMR1L equ 0Eh ;# 
   743  000E                     # 666 "C:\Program Files (x86)\Microchip\xc8\v2.00\pic\include\pic16f887.h"
   744                           TMR1H equ 0Fh ;# 
   745  000F                     # 673 "C:\Program Files (x86)\Microchip\xc8\v2.00\pic\include\pic16f887.h"
   746                           T1CON equ 010h ;# 
   747  0010                     # 767 "C:\Program Files (x86)\Microchip\xc8\v2.00\pic\include\pic16f887.h"
   748                           TMR2 equ 011h ;# 
   749  0011                     # 774 "C:\Program Files (x86)\Microchip\xc8\v2.00\pic\include\pic16f887.h"
   750                           T2CON equ 012h ;# 
   751  0012                     # 845 "C:\Program Files (x86)\Microchip\xc8\v2.00\pic\include\pic16f887.h"
   752                           SSPBUF equ 013h ;# 
   753  0013                     # 852 "C:\Program Files (x86)\Microchip\xc8\v2.00\pic\include\pic16f887.h"
   754                           SSPCON equ 014h ;# 
   755  0014                     # 922 "C:\Program Files (x86)\Microchip\xc8\v2.00\pic\include\pic16f887.h"
   756                           CCPR1 equ 015h ;# 
   757  0015                     # 929 "C:\Program Files (x86)\Microchip\xc8\v2.00\pic\include\pic16f887.h"
   758                           CCPR1L equ 015h ;# 
   759  0015                     # 936 "C:\Program Files (x86)\Microchip\xc8\v2.00\pic\include\pic16f887.h"
   760                           CCPR1H equ 016h ;# 
   761  0016                     # 943 "C:\Program Files (x86)\Microchip\xc8\v2.00\pic\include\pic16f887.h"
   762                           CCP1CON equ 017h ;# 
   763  0017                     # 1040 "C:\Program Files (x86)\Microchip\xc8\v2.00\pic\include\pic16f887.h"
   764                           RCSTA equ 018h ;# 
   765  0018                     # 1135 "C:\Program Files (x86)\Microchip\xc8\v2.00\pic\include\pic16f887.h"
   766                           TXREG equ 019h ;# 
   767  0019                     # 1142 "C:\Program Files (x86)\Microchip\xc8\v2.00\pic\include\pic16f887.h"
   768                           RCREG equ 01Ah ;# 
   769  001A                     # 1149 "C:\Program Files (x86)\Microchip\xc8\v2.00\pic\include\pic16f887.h"
   770                           CCPR2 equ 01Bh ;# 
   771  001B                     # 1156 "C:\Program Files (x86)\Microchip\xc8\v2.00\pic\include\pic16f887.h"
   772                           CCPR2L equ 01Bh ;# 
   773  001B                     # 1163 "C:\Program Files (x86)\Microchip\xc8\v2.00\pic\include\pic16f887.h"
   774                           CCPR2H equ 01Ch ;# 
   775  001C                     # 1170 "C:\Program Files (x86)\Microchip\xc8\v2.00\pic\include\pic16f887.h"
   776                           CCP2CON equ 01Dh ;# 
   777  001D                     # 1240 "C:\Program Files (x86)\Microchip\xc8\v2.00\pic\include\pic16f887.h"
   778                           ADRESH equ 01Eh ;# 
   779  001E                     # 1247 "C:\Program Files (x86)\Microchip\xc8\v2.00\pic\include\pic16f887.h"
   780                           ADCON0 equ 01Fh ;# 
   781  001F                     # 1348 "C:\Program Files (x86)\Microchip\xc8\v2.00\pic\include\pic16f887.h"
   782                           OPTION_REG equ 081h ;# 
   783  0081                     # 1418 "C:\Program Files (x86)\Microchip\xc8\v2.00\pic\include\pic16f887.h"
   784                           TRISA equ 085h ;# 
   785  0085                     # 1480 "C:\Program Files (x86)\Microchip\xc8\v2.00\pic\include\pic16f887.h"
   786                           TRISB equ 086h ;# 
   787  0086                     # 1542 "C:\Program Files (x86)\Microchip\xc8\v2.00\pic\include\pic16f887.h"
   788                           TRISC equ 087h ;# 
   789  0087                     # 1604 "C:\Program Files (x86)\Microchip\xc8\v2.00\pic\include\pic16f887.h"
   790                           TRISD equ 088h ;# 
   791  0088                     # 1666 "C:\Program Files (x86)\Microchip\xc8\v2.00\pic\include\pic16f887.h"
   792                           TRISE equ 089h ;# 
   793  0089                     # 1704 "C:\Program Files (x86)\Microchip\xc8\v2.00\pic\include\pic16f887.h"
   794                           PIE1 equ 08Ch ;# 
   795  008C                     # 1760 "C:\Program Files (x86)\Microchip\xc8\v2.00\pic\include\pic16f887.h"
   796                           PIE2 equ 08Dh ;# 
   797  008D                     # 1817 "C:\Program Files (x86)\Microchip\xc8\v2.00\pic\include\pic16f887.h"
   798                           PCON equ 08Eh ;# 
   799  008E                     # 1864 "C:\Program Files (x86)\Microchip\xc8\v2.00\pic\include\pic16f887.h"
   800                           OSCCON equ 08Fh ;# 
   801  008F                     # 1929 "C:\Program Files (x86)\Microchip\xc8\v2.00\pic\include\pic16f887.h"
   802                           OSCTUNE equ 090h ;# 
   803  0090                     # 1981 "C:\Program Files (x86)\Microchip\xc8\v2.00\pic\include\pic16f887.h"
   804                           SSPCON2 equ 091h ;# 
   805  0091                     # 2043 "C:\Program Files (x86)\Microchip\xc8\v2.00\pic\include\pic16f887.h"
   806                           PR2 equ 092h ;# 
   807  0092                     # 2050 "C:\Program Files (x86)\Microchip\xc8\v2.00\pic\include\pic16f887.h"
   808                           SSPADD equ 093h ;# 
   809  0093                     # 2057 "C:\Program Files (x86)\Microchip\xc8\v2.00\pic\include\pic16f887.h"
   810                           SSPMSK equ 093h ;# 
   811  0093                     # 2062 "C:\Program Files (x86)\Microchip\xc8\v2.00\pic\include\pic16f887.h"
   812                           MSK equ 093h ;# 
   813  0093                     # 2179 "C:\Program Files (x86)\Microchip\xc8\v2.00\pic\include\pic16f887.h"
   814                           SSPSTAT equ 094h ;# 
   815  0094                     # 2348 "C:\Program Files (x86)\Microchip\xc8\v2.00\pic\include\pic16f887.h"
   816                           WPUB equ 095h ;# 
   817  0095                     # 2418 "C:\Program Files (x86)\Microchip\xc8\v2.00\pic\include\pic16f887.h"
   818                           IOCB equ 096h ;# 
   819  0096                     # 2488 "C:\Program Files (x86)\Microchip\xc8\v2.00\pic\include\pic16f887.h"
   820                           VRCON equ 097h ;# 
   821  0097                     # 2558 "C:\Program Files (x86)\Microchip\xc8\v2.00\pic\include\pic16f887.h"
   822                           TXSTA equ 098h ;# 
   823  0098                     # 2644 "C:\Program Files (x86)\Microchip\xc8\v2.00\pic\include\pic16f887.h"
   824                           SPBRG equ 099h ;# 
   825  0099                     # 2706 "C:\Program Files (x86)\Microchip\xc8\v2.00\pic\include\pic16f887.h"
   826                           SPBRGH equ 09Ah ;# 
   827  009A                     # 2776 "C:\Program Files (x86)\Microchip\xc8\v2.00\pic\include\pic16f887.h"
   828                           PWM1CON equ 09Bh ;# 
   829  009B                     # 2846 "C:\Program Files (x86)\Microchip\xc8\v2.00\pic\include\pic16f887.h"
   830                           ECCPAS equ 09Ch ;# 
   831  009C                     # 2928 "C:\Program Files (x86)\Microchip\xc8\v2.00\pic\include\pic16f887.h"
   832                           PSTRCON equ 09Dh ;# 
   833  009D                     # 2972 "C:\Program Files (x86)\Microchip\xc8\v2.00\pic\include\pic16f887.h"
   834                           ADRESL equ 09Eh ;# 
   835  009E                     # 2979 "C:\Program Files (x86)\Microchip\xc8\v2.00\pic\include\pic16f887.h"
   836                           ADCON1 equ 09Fh ;# 
   837  009F                     # 3013 "C:\Program Files (x86)\Microchip\xc8\v2.00\pic\include\pic16f887.h"
   838                           WDTCON equ 0105h ;# 
   839  0105                     # 3066 "C:\Program Files (x86)\Microchip\xc8\v2.00\pic\include\pic16f887.h"
   840                           CM1CON0 equ 0107h ;# 
   841  0107                     # 3131 "C:\Program Files (x86)\Microchip\xc8\v2.00\pic\include\pic16f887.h"
   842                           CM2CON0 equ 0108h ;# 
   843  0108                     # 3196 "C:\Program Files (x86)\Microchip\xc8\v2.00\pic\include\pic16f887.h"
   844                           CM2CON1 equ 0109h ;# 
   845  0109                     # 3247 "C:\Program Files (x86)\Microchip\xc8\v2.00\pic\include\pic16f887.h"
   846                           EEDATA equ 010Ch ;# 
   847  010C                     # 3252 "C:\Program Files (x86)\Microchip\xc8\v2.00\pic\include\pic16f887.h"
   848                           EEDAT equ 010Ch ;# 
   849  010C                     # 3259 "C:\Program Files (x86)\Microchip\xc8\v2.00\pic\include\pic16f887.h"
   850                           EEADR equ 010Dh ;# 
   851  010D                     # 3266 "C:\Program Files (x86)\Microchip\xc8\v2.00\pic\include\pic16f887.h"
   852                           EEDATH equ 010Eh ;# 
   853  010E                     # 3273 "C:\Program Files (x86)\Microchip\xc8\v2.00\pic\include\pic16f887.h"
   854                           EEADRH equ 010Fh ;# 
   855  010F                     # 3280 "C:\Program Files (x86)\Microchip\xc8\v2.00\pic\include\pic16f887.h"
   856                           SRCON equ 0185h ;# 
   857  0185                     # 3337 "C:\Program Files (x86)\Microchip\xc8\v2.00\pic\include\pic16f887.h"
   858                           BAUDCTL equ 0187h ;# 
   859  0187                     # 3389 "C:\Program Files (x86)\Microchip\xc8\v2.00\pic\include\pic16f887.h"
   860                           ANSEL equ 0188h ;# 
   861  0188                     # 3451 "C:\Program Files (x86)\Microchip\xc8\v2.00\pic\include\pic16f887.h"
   862                           ANSELH equ 0189h ;# 
   863  0189                     # 3501 "C:\Program Files (x86)\Microchip\xc8\v2.00\pic\include\pic16f887.h"
   864                           EECON1 equ 018Ch ;# 
   865  018C                     # 3546 "C:\Program Files (x86)\Microchip\xc8\v2.00\pic\include\pic16f887.h"
   866                           EECON2 equ 018Dh ;# 
   867  018D                     	FNCALL	_main,_K1
   868                           	FNCALL	_main,_K1status
   869                           	FNCALL	_main,_K2
   870                           	FNCALL	_main,_K3
   871                           	FNCALL	_main,_contatores_init
   872                           	FNCALL	_main,_delay
   873                           	FNCALL	_main,_display7seg
   874                           	FNCALL	_main,_display7seg_init
   875                           	FNCALL	_main,_s0
   876                           	FNCALL	_main,_s1
   877                           	FNROOT	_main
   878                           	global	_vetor
   879                           psect	idataBANK0,class=CODE,space=0,delta=2,noexec
   880                           global __pidataBANK0
   881                           __pidataBANK0:
   882  0690                     	file	"display.c"
   883                           	line	14
   884                           
   885                           ;initializer for _vetor
   886                           	retlw	03Fh
   887  0690  343F               	retlw	06h
   888  0691  3406               	retlw	05Bh
   889  0692  345B               	retlw	04Fh
   890  0693  344F               	retlw	066h
   891  0694  3466               	retlw	06Dh
   892  0695  346D               	retlw	07Dh
   893  0696  347D               	retlw	07h
   894  0697  3407               	retlw	07Fh
   895  0698  347F               	retlw	06Fh
   896  0699  346F               	retlw	077h
   897  069A  3477               	retlw	07Ch
   898  069B  347C               	retlw	039h
   899  069C  3439               	retlw	05Eh
   900  069D  345E               	retlw	079h
   901  069E  3479               	retlw	071h
   902  069F  3471               	global	_PORTB
   903                           _PORTB	set	0x6
   904  0006                     	global	_PORTDbits
   905                           _PORTDbits	set	0x8
   906  0008                     	global	_TRISB
   907                           _TRISB	set	0x86
   908  0086                     	global	_TRISDbits
   909                           _TRISDbits	set	0x88
   910  0088                     	global	_ANSELH
   911                           _ANSELH	set	0x189
   912  0189                     ; #config settings
   913                           global __CFG_FOSC$INTRC_NOCLKOUT
   914                           __CFG_FOSC$INTRC_NOCLKOUT equ 0x0
   915  0000                     global __CFG_WDTE$OFF
   916                           __CFG_WDTE$OFF equ 0x0
   917  0000                     global __CFG_PWRTE$OFF
   918                           __CFG_PWRTE$OFF equ 0x0
   919  0000                     global __CFG_MCLRE$OFF
   920                           __CFG_MCLRE$OFF equ 0x0
   921  0000                     global __CFG_CP$OFF
   922                           __CFG_CP$OFF equ 0x0
   923  0000                     global __CFG_CPD$OFF
   924                           __CFG_CPD$OFF equ 0x0
   925  0000                     global __CFG_BOREN$OFF
   926                           __CFG_BOREN$OFF equ 0x0
   927  0000                     global __CFG_IESO$OFF
   928                           __CFG_IESO$OFF equ 0x0
   929  0000                     global __CFG_FCMEN$OFF
   930                           __CFG_FCMEN$OFF equ 0x0
   931  0000                     global __CFG_LVP$OFF
   932                           __CFG_LVP$OFF equ 0x0
   933  0000                     global __CFG_BOR4V$BOR40V
   934                           __CFG_BOR4V$BOR40V equ 0x0
   935  0000                     global __CFG_WRT$OFF
   936                           __CFG_WRT$OFF equ 0x0
   937  0000                     	file	"C:\Users\20185307\AppData\Local\Temp\s5vs."
   938                           	line	#
   939                           psect cinit,class=CODE,delta=2
   940                           global start_initialization
   941                           start_initialization:
   942  07EE                     
   943                           global __initialization
   944                           __initialization:
   945  07EE                     psect	dataBANK0,class=BANK0,space=1,noexec
   946                           global __pdataBANK0
   947                           __pdataBANK0:
   948  0020                     	file	"display.c"
   949                           	line	14
   950                           _vetor:
   951  0020                            ds      16
   952  0020                     
   953                           	file	"C:\Users\20185307\AppData\Local\Temp\s5vs."
   954                           	line	#
   955                           global btemp
   956                           psect inittext,class=CODE,delta=2
   957                           global init_fetch0,btemp
   958                           ;	Called with low address in FSR and high address in W
   959                           init_fetch0:
   960  06A0                     	movf btemp,w
   961  06A0  087E               	movwf pclath
   962  06A1  008A               	movf btemp+1,w
   963  06A2  087F               	movwf pc
   964  06A3  0082               global init_ram0
   965                           ;Called with:
   966                           ;	high address of idata address in btemp 
   967                           ;	low address of idata address in btemp+1 
   968                           ;	low address of data in FSR
   969                           ;	high address + 1 of data in btemp-1
   970                           init_ram0:
   971  06A4                     	fcall init_fetch0
   972  06A4  120A  118A  26A0  120A  118A  	movwf indf,f
   973  06A9  0080               	incf fsr,f
   974  06AA  0A84               	movf fsr,w
   975  06AB  0804               	xorwf btemp-1,w
   976  06AC  067D               	btfsc status,2
   977  06AD  1903               	retlw 0
   978  06AE  3400               	incf btemp+1,f
   979  06AF  0AFF               	btfsc status,2
   980  06B0  1903               	incf btemp,f
   981  06B1  0AFE               	goto init_ram0
   982  06B2  2EA4               ; Initialize objects allocated to BANK0
   983                           psect cinit,class=CODE,delta=2,merge=1
   984                           global init_ram0, __pidataBANK0
   985                           	bcf	status, 7	;select IRP bank0
   986  07EE  1383               	movlw low(__pdataBANK0+16)
   987  07EF  3030               	movwf btemp-1,f
   988  07F0  00FD               	movlw high(__pidataBANK0)
   989  07F1  3006               	movwf btemp,f
   990  07F2  00FE               	movlw low(__pidataBANK0)
   991  07F3  3090               	movwf btemp+1,f
   992  07F4  00FF               	movlw low(__pdataBANK0)
   993  07F5  3020               	movwf fsr,f
   994  07F6  0084               	fcall init_ram0
   995  07F7  120A  118A  26A4  120A  118A  psect cinit,class=CODE,delta=2,merge=1
   996                           global end_of_initialization,__end_of__initialization
   997                           
   998                           ;End of C runtime variable initialization code
   999                           
  1000                           end_of_initialization:
  1001  07FC                     __end_of__initialization:
  1002  07FC                     clrf status
  1003  07FC  0183               ljmp _main	;jump to C main() function
  1004  07FD  120A  118A  2ECA   psect	cstackCOMMON,class=COMMON,space=1,noexec
  1005                           global __pcstackCOMMON
  1006                           __pcstackCOMMON:
  1007  0070                     ?_contatores_init:	; 1 bytes @ 0x0
  1008  0070                     ??_contatores_init:	; 1 bytes @ 0x0
  1009  0070                     ?_display7seg_init:	; 1 bytes @ 0x0
  1010  0070                     ??_display7seg_init:	; 1 bytes @ 0x0
  1011  0070                     ?_K1:	; 1 bytes @ 0x0
  1012  0070                     ?_K2:	; 1 bytes @ 0x0
  1013  0070                     ?_K3:	; 1 bytes @ 0x0
  1014  0070                     ?_delay:	; 1 bytes @ 0x0
  1015  0070                     ?_display7seg:	; 1 bytes @ 0x0
  1016  0070                     ?_main:	; 1 bytes @ 0x0
  1017  0070                     	global	?_s1
  1018                           ?_s1:	; 2 bytes @ 0x0
  1019  0070                     	global	?_K1status
  1020                           ?_K1status:	; 2 bytes @ 0x0
  1021  0070                     	global	?_s0
  1022                           ?_s0:	; 2 bytes @ 0x0
  1023  0070                     	global	delay@t
  1024                           delay@t:	; 2 bytes @ 0x0
  1025  0070                     	global	K1@estado
  1026                           K1@estado:	; 2 bytes @ 0x0
  1027  0070                     	global	K2@estado
  1028                           K2@estado:	; 2 bytes @ 0x0
  1029  0070                     	global	K3@estado
  1030                           K3@estado:	; 2 bytes @ 0x0
  1031  0070                     	global	display7seg@c
  1032                           display7seg@c:	; 2 bytes @ 0x0
  1033  0070                     	ds	2
  1034  0070                     ??_s1:	; 1 bytes @ 0x2
  1035  0072                     ??_K1status:	; 1 bytes @ 0x2
  1036  0072                     ??_K1:	; 1 bytes @ 0x2
  1037  0072                     ??_K2:	; 1 bytes @ 0x2
  1038  0072                     ??_K3:	; 1 bytes @ 0x2
  1039  0072                     ??_delay:	; 1 bytes @ 0x2
  1040  0072                     ??_s0:	; 1 bytes @ 0x2
  1041  0072                     ??_display7seg:	; 1 bytes @ 0x2
  1042  0072                     	ds	2
  1043  0072                     ??_main:	; 1 bytes @ 0x4
  1044  0074                     	global	main@t
  1045                           main@t:	; 2 bytes @ 0x4
  1046  0074                     	ds	2
  1047  0074                     	global	main@cont
  1048                           main@cont:	; 2 bytes @ 0x6
  1049  0076                     	ds	2
  1050  0076                     	global	main@estado
  1051                           main@estado:	; 2 bytes @ 0x8
  1052  0078                     	ds	2
  1053  0078                     ;!
  1054                           ;!Data Sizes:
  1055                           ;!    Strings     0
  1056                           ;!    Constant    0
  1057                           ;!    Data        16
  1058                           ;!    BSS         0
  1059                           ;!    Persistent  0
  1060                           ;!    Stack       0
  1061                           ;!
  1062                           ;!Auto Spaces:
  1063                           ;!    Space          Size  Autos    Used
  1064                           ;!    COMMON           14     10      10
  1065                           ;!    BANK0            80      0      16
  1066                           ;!    BANK1            80      0       0
  1067                           ;!    BANK3            96      0       0
  1068                           ;!    BANK2            96      0       0
  1069                           
  1070                           ;!
  1071                           ;!Pointer List with Targets:
  1072                           ;!
  1073                           ;!    None.
  1074                           
  1075                           
  1076                           ;!
  1077                           ;!Critical Paths under _main in COMMON
  1078                           ;!
  1079                           ;!    _main->_K1status
  1080                           ;!    _main->_s0
  1081                           ;!    _main->_s1
  1082                           ;!
  1083                           ;!Critical Paths under _main in BANK0
  1084                           ;!
  1085                           ;!    None.
  1086                           ;!
  1087                           ;!Critical Paths under _main in BANK1
  1088                           ;!
  1089                           ;!    None.
  1090                           ;!
  1091                           ;!Critical Paths under _main in BANK3
  1092                           ;!
  1093                           ;!    None.
  1094                           ;!
  1095                           ;!Critical Paths under _main in BANK2
  1096                           ;!
  1097                           ;!    None.
  1098                           
  1099 ;;
  1100 ;;Main: autosize = 0, tempsize = 0, incstack = 0, save=0
  1101 ;;
  1102                           
  1103                           ;!
  1104                           ;!Call Graph Tables:
  1105                           ;!
  1106                           ;! ---------------------------------------------------------------------------------
  1107                           ;! (Depth) Function   	        Calls       Base Space   Used Autos Params    Refs
  1108                           ;! ---------------------------------------------------------------------------------
  1109                           ;! (0) _main                                                 6     6      0    1051
  1110                           ;!                                              4 COMMON     6     6      0
  1111                           ;!                                 _K1
  1112                           ;!                           _K1status
  1113                           ;!                                 _K2
  1114                           ;!                                 _K3
  1115                           ;!                    _contatores_init
  1116                           ;!                              _delay
  1117                           ;!                        _display7seg
  1118                           ;!                   _display7seg_init
  1119                           ;!                                 _s0
  1120                           ;!                                 _s1
  1121                           ;! ---------------------------------------------------------------------------------
  1122                           ;! (1) _s1                                                   4     2      2       0
  1123                           ;!                                              0 COMMON     4     2      2
  1124                           ;! ---------------------------------------------------------------------------------
  1125                           ;! (1) _s0                                                   4     2      2       0
  1126                           ;!                                              0 COMMON     4     2      2
  1127                           ;! ---------------------------------------------------------------------------------
  1128                           ;! (1) _display7seg_init                                     0     0      0       0
  1129                           ;! ---------------------------------------------------------------------------------
  1130                           ;! (1) _display7seg                                          2     0      2      98
  1131                           ;!                                              0 COMMON     2     0      2
  1132                           ;! ---------------------------------------------------------------------------------
  1133                           ;! (1) _delay                                                3     1      2      99
  1134                           ;!                                              0 COMMON     3     1      2
  1135                           ;! ---------------------------------------------------------------------------------
  1136                           ;! (1) _contatores_init                                      0     0      0       0
  1137                           ;! ---------------------------------------------------------------------------------
  1138                           ;! (1) _K3                                                   2     0      2     250
  1139                           ;!                                              0 COMMON     2     0      2
  1140                           ;! ---------------------------------------------------------------------------------
  1141                           ;! (1) _K2                                                   2     0      2     250
  1142                           ;!                                              0 COMMON     2     0      2
  1143                           ;! ---------------------------------------------------------------------------------
  1144                           ;! (1) _K1status                                             4     2      2       0
  1145                           ;!                                              0 COMMON     4     2      2
  1146                           ;! ---------------------------------------------------------------------------------
  1147                           ;! (1) _K1                                                   2     0      2     250
  1148                           ;!                                              0 COMMON     2     0      2
  1149                           ;! ---------------------------------------------------------------------------------
  1150                           ;! Estimated maximum stack depth 1
  1151                           ;! ---------------------------------------------------------------------------------
  1152                           ;!
  1153                           ;! Call Graph Graphs:
  1154                           ;!
  1155                           ;! _main (ROOT)
  1156                           ;!   _K1
  1157                           ;!   _K1status
  1158                           ;!   _K2
  1159                           ;!   _K3
  1160                           ;!   _contatores_init
  1161                           ;!   _delay
  1162                           ;!   _display7seg
  1163                           ;!   _display7seg_init
  1164                           ;!   _s0
  1165                           ;!   _s1
  1166                           ;!
  1167                           
  1168                           ;! Address spaces:
  1169                           
  1170                           ;!Name               Size   Autos  Total    Cost      Usage
  1171                           ;!BANK3               60      0       0       9        0.0%
  1172                           ;!BITBANK3            60      0       0       8        0.0%
  1173                           ;!SFR3                 0      0       0       4        0.0%
  1174                           ;!BITSFR3              0      0       0       4        0.0%
  1175                           ;!BANK2               60      0       0      11        0.0%
  1176                           ;!BITBANK2            60      0       0      10        0.0%
  1177                           ;!SFR2                 0      0       0       5        0.0%
  1178                           ;!BITSFR2              0      0       0       5        0.0%
  1179                           ;!BANK1               50      0       0       7        0.0%
  1180                           ;!BITBANK1            50      0       0       6        0.0%
  1181                           ;!SFR1                 0      0       0       2        0.0%
  1182                           ;!BITSFR1              0      0       0       2        0.0%
  1183                           ;!BANK0               50      0      10       5       20.0%
  1184                           ;!BITBANK0            50      0       0       4        0.0%
  1185                           ;!SFR0                 0      0       0       1        0.0%
  1186                           ;!BITSFR0              0      0       0       1        0.0%
  1187                           ;!COMMON               E      A       A       1       71.4%
  1188                           ;!BITCOMMON            E      0       0       0        0.0%
  1189                           ;!CODE                 0      0       0       0        0.0%
  1190                           ;!DATA                 0      0      1A      12        0.0%
  1191                           ;!ABS                  0      0      1A       3        0.0%
  1192                           ;!NULL                 0      0       0       0        0.0%
  1193                           ;!STACK                0      0       0       2        0.0%
  1194                           ;!EEDATA             100      0       0       0        0.0%
  1195                           
  1196                           	global	_main
  1197                           
  1198 ;; *************** function _main *****************
  1199 ;; Defined at:
  1200 ;;		line 17 in file "main.c"
  1201 ;; Parameters:    Size  Location     Type
  1202 ;;		None
  1203 ;; Auto vars:     Size  Location     Type
  1204 ;;  estado          2    8[COMMON] int 
  1205 ;;  cont            2    6[COMMON] int 
  1206 ;;  t               2    4[COMMON] int 
  1207 ;; Return value:  Size  Location     Type
  1208 ;;                  1    wreg      void 
  1209 ;; Registers used:
  1210 ;;		wreg, fsr0l, fsr0h, status,2, status,0, btemp+1, pclath, cstack
  1211 ;; Tracked objects:
  1212 ;;		On entry : B00/0
  1213 ;;		On exit  : 0/0
  1214 ;;		Unchanged: 0/0
  1215 ;; Data sizes:     COMMON   BANK0   BANK1   BANK3   BANK2
  1216 ;;      Params:         0       0       0       0       0
  1217 ;;      Locals:         6       0       0       0       0
  1218 ;;      Temps:          0       0       0       0       0
  1219 ;;      Totals:         6       0       0       0       0
  1220 ;;Total ram usage:        6 bytes
  1221 ;; Hardware stack levels required when called:    1
  1222 ;; This function calls:
  1223 ;;		_K1
  1224 ;;		_K1status
  1225 ;;		_K2
  1226 ;;		_K3
  1227 ;;		_contatores_init
  1228 ;;		_delay
  1229 ;;		_display7seg
  1230 ;;		_display7seg_init
  1231 ;;		_s0
  1232 ;;		_s1
  1233 ;; This function is called by:
  1234 ;;		Startup code after reset
  1235 ;; This function uses a non-reentrant model
  1236 ;;
  1237                           psect	maintext,global,class=CODE,delta=2,split=1,group=0
  1238                           	file	"main.c"
  1239                           	line	17
  1240                           global __pmaintext
  1241                           __pmaintext:	;psect for function _main
  1242  06CA                     psect	maintext
  1243                           	file	"main.c"
  1244                           	line	17
  1245                           	global	__size_of_main
  1246                           	__size_of_main	equ	__end_of_main-_main
  1247  0124                     	
  1248                           _main:	
  1249  06CA                     ;incstack = 0
  1250                           	opt	stack 7
  1251                           ; Regs used in _main: [wreg-fsr0h+status,2+status,0+btemp+1+pclath+cstack]
  1252                           	line	21
  1253                           	
  1254                           l810:	
  1255  06CA                     ;main.c: 20: {;main.c: 21:     int cont = 0;
  1256                           	clrf	(main@cont)
  1257  06CA  01F6               	clrf	(main@cont+1)
  1258  06CB  01F7               	line	22
  1259                           ;main.c: 22:     int estado = 0;
  1260                           	clrf	(main@estado)
  1261  06CC  01F8               	clrf	(main@estado+1)
  1262  06CD  01F9               	goto	l854
  1263  06CE  2FAE               	line	26
  1264                           ;main.c: 23:     int t;;main.c: 26:      while ( 1 )
  1265                           	
  1266                           l27:	
  1267  06CF                     	line	28
  1268                           ;main.c: 27:     {;main.c: 28:         switch ( estado )
  1269                           	goto	l854
  1270  06CF  2FAE               	line	30
  1271                           ;main.c: 29:         {;main.c: 30:             case 0:
  1272                           	
  1273                           l29:	
  1274  06D0                     	line	31
  1275                           	
  1276                           l812:	
  1277  06D0                     ;main.c: 31:                     estado = 1;
  1278                           	movlw	01h
  1279  06D0  3001               	movwf	(main@estado)
  1280  06D1  00F8               	movlw	0
  1281  06D2  3000               	movwf	((main@estado))+1
  1282  06D3  00F9               	line	32
  1283                           ;main.c: 32:                     break;
  1284                           	goto	l856
  1285  06D4  2FD0               	line	33
  1286                           ;main.c: 33:             case 1:
  1287                           	
  1288                           l31:	
  1289  06D5                     	line	34
  1290                           	
  1291                           l814:	
  1292  06D5                     ;main.c: 34:                     contatores_init();
  1293                           	fcall	_contatores_init
  1294  06D5  120A  118A  2660  120A  118A  	line	35
  1295                           ;main.c: 35:                     display7seg_init();
  1296                           	fcall	_display7seg_init
  1297  06DA  120A  118A  2656  120A  118A  	line	36
  1298                           	
  1299                           l816:	
  1300  06DF                     ;main.c: 36:                     estado = 2;
  1301                           	movlw	02h
  1302  06DF  3002               	movwf	(main@estado)
  1303  06E0  00F8               	movlw	0
  1304  06E1  3000               	movwf	((main@estado))+1
  1305  06E2  00F9               	line	37
  1306                           ;main.c: 37:                     break;
  1307                           	goto	l856
  1308  06E3  2FD0               	line	38
  1309                           ;main.c: 38:             case 2:
  1310                           	
  1311                           l32:	
  1312  06E4                     	line	39
  1313                           	
  1314                           l818:	
  1315  06E4                     ;main.c: 39:                     if ( s1() == 1 && K1status() == 0 )
  1316                           	fcall	_s1
  1317  06E4  120A  118A  2677  120A  118A  		decf	((0+(?_s1))),w
  1318  06E9  0370               iorwf	((1+(?_s1))),w
  1319  06EA  0471               	btfss	status,2
  1320  06EB  1D03               	goto	u91
  1321  06EC  2EEE               	goto	u90
  1322  06ED  2EEF               u91:
  1323  06EE                     	goto	l856
  1324  06EE  2FD0               u90:
  1325  06EF                     	
  1326                           l820:	
  1327  06EF                     	fcall	_K1status
  1328  06EF  120A  118A  2683  120A  118A  	movf	((0+(?_K1status))),w
  1329  06F4  0870               iorwf	((1+(?_K1status))),w
  1330  06F5  0471               	btfss	status,2
  1331  06F6  1D03               	goto	u101
  1332  06F7  2EF9               	goto	u100
  1333  06F8  2EFA               u101:
  1334  06F9                     	goto	l856
  1335  06F9  2FD0               u100:
  1336  06FA                     	line	40
  1337                           	
  1338                           l822:	
  1339  06FA                     ;main.c: 40:                         estado = 3;
  1340                           	movlw	03h
  1341  06FA  3003               	movwf	(main@estado)
  1342  06FB  00F8               	movlw	0
  1343  06FC  3000               	movwf	((main@estado))+1
  1344  06FD  00F9               	goto	l856
  1345  06FE  2FD0               	
  1346                           l33:	
  1347  06FF                     	line	41
  1348                           ;main.c: 41:                     break;
  1349                           	goto	l856
  1350  06FF  2FD0               	line	42
  1351                           ;main.c: 42:             case 3:
  1352                           	
  1353                           l34:	
  1354  0700                     	line	43
  1355                           	
  1356                           l824:	
  1357  0700                     ;main.c: 43:                     K1(1);
  1358                           	movlw	01h
  1359  0700  3001               	movwf	(K1@estado)
  1360  0701  00F0               	movlw	0
  1361  0702  3000               	movwf	((K1@estado))+1
  1362  0703  00F1               	fcall	_K1
  1363  0704  120A  118A  2635  120A  118A  	line	44
  1364                           ;main.c: 44:                     K2(1);
  1365                           	movlw	01h
  1366  0709  3001               	movwf	(K2@estado)
  1367  070A  00F0               	movlw	0
  1368  070B  3000               	movwf	((K2@estado))+1
  1369  070C  00F1               	fcall	_K2
  1370  070D  120A  118A  263D  120A  118A  	line	45
  1371                           ;main.c: 45:                     K3(0);
  1372                           	movlw	0
  1373  0712  3000               	movwf	(K3@estado)
  1374  0713  00F0               	movwf	(K3@estado+1)
  1375  0714  00F1               	fcall	_K3
  1376  0715  120A  118A  2645  120A  118A  	line	46
  1377                           	
  1378                           l826:	
  1379  071A                     ;main.c: 46:                     estado = 4;
  1380                           	movlw	04h
  1381  071A  3004               	movwf	(main@estado)
  1382  071B  00F8               	movlw	0
  1383  071C  3000               	movwf	((main@estado))+1
  1384  071D  00F9               	line	47
  1385                           ;main.c: 47:                     break;
  1386                           	goto	l856
  1387  071E  2FD0               	line	48
  1388                           ;main.c: 48:             case 4:
  1389                           	
  1390                           l35:	
  1391  071F                     	line	49
  1392                           	
  1393                           l828:	
  1394  071F                     ;main.c: 49:                     t = 3000;
  1395                           	movlw	0B8h
  1396  071F  30B8               	movwf	(main@t)
  1397  0720  00F4               	movlw	0Bh
  1398  0721  300B               	movwf	((main@t))+1
  1399  0722  00F5               	line	50
  1400                           ;main.c: 50:                     estado = 6;
  1401                           	movlw	06h
  1402  0723  3006               	movwf	(main@estado)
  1403  0724  00F8               	movlw	0
  1404  0725  3000               	movwf	((main@estado))+1
  1405  0726  00F9               	line	51
  1406                           ;main.c: 51:                     break;
  1407                           	goto	l856
  1408  0727  2FD0               	line	52
  1409                           ;main.c: 52:             case 6:
  1410                           	
  1411                           l36:	
  1412  0728                     	line	53
  1413                           	
  1414                           l830:	
  1415  0728                     ;main.c: 53:                     delay(1);
  1416                           	movlw	01h
  1417  0728  3001               	movwf	(delay@t)
  1418  0729  00F0               	movlw	0
  1419  072A  3000               	movwf	((delay@t))+1
  1420  072B  00F1               	fcall	_delay
  1421  072C  120A  118A  26B3  120A  118A  	line	54
  1422                           	
  1423                           l832:	
  1424  0731                     ;main.c: 54:                     --t;
  1425                           	movlw	0FFh
  1426  0731  30FF               	addwf	(main@t),f
  1427  0732  07F4               	skipnc
  1428  0733  1803               	incf	(main@t+1),f
  1429  0734  0AF5               	movlw	0FFh
  1430  0735  30FF               	addwf	(main@t+1),f
  1431  0736  07F5               	line	55
  1432                           	
  1433                           l834:	
  1434  0737                     ;main.c: 55:                     if (t <= 0 )
  1435                           	movf	(main@t+1),w
  1436  0737  0875               	xorlw	80h
  1437  0738  3A80               	movwf	btemp+1
  1438  0739  00FF               	movlw	(0)^80h
  1439  073A  3080               	subwf	btemp+1,w
  1440  073B  027F               	skipz
  1441  073C  1D03               	goto	u115
  1442  073D  2F40               	movlw	01h
  1443  073E  3001               	subwf	(main@t),w
  1444  073F  0274               u115:
  1445  0740                     
  1446                           	skipnc
  1447  0740  1803               	goto	u111
  1448  0741  2F43               	goto	u110
  1449  0742  2F44               u111:
  1450  0743                     	goto	l838
  1451  0743  2F49               u110:
  1452  0744                     	line	56
  1453                           	
  1454                           l836:	
  1455  0744                     ;main.c: 56:                         estado = 7;
  1456                           	movlw	07h
  1457  0744  3007               	movwf	(main@estado)
  1458  0745  00F8               	movlw	0
  1459  0746  3000               	movwf	((main@estado))+1
  1460  0747  00F9               	goto	l838
  1461  0748  2F49               	
  1462                           l37:	
  1463  0749                     	line	57
  1464                           	
  1465                           l838:	
  1466  0749                     ;main.c: 57:                     if( s0() == 1 )
  1467                           	fcall	_s0
  1468  0749  120A  118A  266B  120A  118A  		decf	((0+(?_s0))),w
  1469  074E  0370               iorwf	((1+(?_s0))),w
  1470  074F  0471               	btfss	status,2
  1471  0750  1D03               	goto	u121
  1472  0751  2F53               	goto	u120
  1473  0752  2F54               u121:
  1474  0753                     	goto	l856
  1475  0753  2FD0               u120:
  1476  0754                     	line	58
  1477                           	
  1478                           l840:	
  1479  0754                     ;main.c: 58:                         estado = 9;
  1480                           	movlw	09h
  1481  0754  3009               	movwf	(main@estado)
  1482  0755  00F8               	movlw	0
  1483  0756  3000               	movwf	((main@estado))+1
  1484  0757  00F9               	goto	l856
  1485  0758  2FD0               	
  1486                           l38:	
  1487  0759                     	line	59
  1488                           ;main.c: 59:                     break;
  1489                           	goto	l856
  1490  0759  2FD0               	line	60
  1491                           ;main.c: 60:             case 7:
  1492                           	
  1493                           l39:	
  1494  075A                     	line	61
  1495                           	
  1496                           l842:	
  1497  075A                     ;main.c: 61:                     ++cont;
  1498                           	movlw	01h
  1499  075A  3001               	addwf	(main@cont),f
  1500  075B  07F6               	skipnc
  1501  075C  1803               	incf	(main@cont+1),f
  1502  075D  0AF7               	movlw	0
  1503  075E  3000               	addwf	(main@cont+1),f
  1504  075F  07F7               	line	62
  1505                           ;main.c: 62:                     estado = 8;
  1506                           	movlw	08h
  1507  0760  3008               	movwf	(main@estado)
  1508  0761  00F8               	movlw	0
  1509  0762  3000               	movwf	((main@estado))+1
  1510  0763  00F9               	line	63
  1511                           ;main.c: 63:                     break;
  1512                           	goto	l856
  1513  0764  2FD0               	line	64
  1514                           ;main.c: 64:             case 8:
  1515                           	
  1516                           l40:	
  1517  0765                     	line	65
  1518                           	
  1519                           l844:	
  1520  0765                     ;main.c: 65:                     K1(1);
  1521                           	movlw	01h
  1522  0765  3001               	movwf	(K1@estado)
  1523  0766  00F0               	movlw	0
  1524  0767  3000               	movwf	((K1@estado))+1
  1525  0768  00F1               	fcall	_K1
  1526  0769  120A  118A  2635  120A  118A  	line	66
  1527                           ;main.c: 66:                     K2(0);
  1528                           	movlw	0
  1529  076E  3000               	movwf	(K2@estado)
  1530  076F  00F0               	movwf	(K2@estado+1)
  1531  0770  00F1               	fcall	_K2
  1532  0771  120A  118A  263D  120A  118A  	line	67
  1533                           ;main.c: 67:                     K3(1);
  1534                           	movlw	01h
  1535  0776  3001               	movwf	(K3@estado)
  1536  0777  00F0               	movlw	0
  1537  0778  3000               	movwf	((K3@estado))+1
  1538  0779  00F1               	fcall	_K3
  1539  077A  120A  118A  2645  120A  118A  	line	68
  1540                           ;main.c: 68:                     if( s0() == 1 )
  1541                           	fcall	_s0
  1542  077F  120A  118A  266B  120A  118A  		decf	((0+(?_s0))),w
  1543  0784  0370               iorwf	((1+(?_s0))),w
  1544  0785  0471               	btfss	status,2
  1545  0786  1D03               	goto	u131
  1546  0787  2F89               	goto	u130
  1547  0788  2F8A               u131:
  1548  0789                     	goto	l856
  1549  0789  2FD0               u130:
  1550  078A                     	line	69
  1551                           	
  1552                           l846:	
  1553  078A                     ;main.c: 69:                         estado = 9;
  1554                           	movlw	09h
  1555  078A  3009               	movwf	(main@estado)
  1556  078B  00F8               	movlw	0
  1557  078C  3000               	movwf	((main@estado))+1
  1558  078D  00F9               	goto	l856
  1559  078E  2FD0               	
  1560                           l41:	
  1561  078F                     	line	70
  1562                           ;main.c: 70:                     break;
  1563                           	goto	l856
  1564  078F  2FD0               	line	71
  1565                           ;main.c: 71:             case 9:
  1566                           	
  1567                           l42:	
  1568  0790                     	line	72
  1569                           	
  1570                           l848:	
  1571  0790                     ;main.c: 72:                     K1(0);
  1572                           	movlw	0
  1573  0790  3000               	movwf	(K1@estado)
  1574  0791  00F0               	movwf	(K1@estado+1)
  1575  0792  00F1               	fcall	_K1
  1576  0793  120A  118A  2635  120A  118A  	line	73
  1577                           ;main.c: 73:                     K2(0);
  1578                           	movlw	0
  1579  0798  3000               	movwf	(K2@estado)
  1580  0799  00F0               	movwf	(K2@estado+1)
  1581  079A  00F1               	fcall	_K2
  1582  079B  120A  118A  263D  120A  118A  	line	74
  1583                           ;main.c: 74:                     K3(0);
  1584                           	movlw	0
  1585  07A0  3000               	movwf	(K3@estado)
  1586  07A1  00F0               	movwf	(K3@estado+1)
  1587  07A2  00F1               	fcall	_K3
  1588  07A3  120A  118A  2645  120A  118A  	line	75
  1589                           	
  1590                           l850:	
  1591  07A8                     ;main.c: 75:                     estado = 2;
  1592                           	movlw	02h
  1593  07A8  3002               	movwf	(main@estado)
  1594  07A9  00F8               	movlw	0
  1595  07AA  3000               	movwf	((main@estado))+1
  1596  07AB  00F9               	line	76
  1597                           ;main.c: 76:                     break;
  1598                           	goto	l856
  1599  07AC  2FD0               	line	77
  1600                           	
  1601                           l852:	
  1602  07AD                     ;main.c: 77:         }
  1603                           	goto	l856
  1604  07AD  2FD0               	
  1605                           l28:	
  1606  07AE                     	
  1607                           l854:	
  1608  07AE                     	; Switch on 2 bytes has been partitioned into a top level switch of size 1, and 1 sub-s
                                 witches
  1609                           ; Switch size 1, requested type "space"
  1610                           ; Number of cases is 1, Range of values is 0 to 0
  1611                           ; switch strategies available:
  1612                           ; Name         Instructions Cycles
  1613                           ; simple_byte            4     3 (average)
  1614                           ; direct_byte           11     8 (fixed)
  1615                           ; jumptable            260     6 (fixed)
  1616                           ;	Chosen strategy is simple_byte
  1617                           
  1618                           	movf (main@estado+1),w
  1619  07AE  0879               	opt asmopt_push
  1620                           	opt asmopt_off
  1621                           	xorlw	0^0	; case 0
  1622  07AF  3A00               	skipnz
  1623  07B0  1903               	goto	l898
  1624  07B1  2FB3               	goto	l856
  1625  07B2  2FD0               	opt asmopt_pop
  1626                           	
  1627                           l898:	
  1628  07B3                     ; Switch size 1, requested type "space"
  1629                           ; Number of cases is 9, Range of values is 0 to 9
  1630                           ; switch strategies available:
  1631                           ; Name         Instructions Cycles
  1632                           ; simple_byte           28    15 (average)
  1633                           ; direct_byte           38     8 (fixed)
  1634                           ; jumptable            260     6 (fixed)
  1635                           ;	Chosen strategy is simple_byte
  1636                           
  1637                           	movf (main@estado),w
  1638  07B3  0878               	opt asmopt_push
  1639                           	opt asmopt_off
  1640                           	xorlw	0^0	; case 0
  1641  07B4  3A00               	skipnz
  1642  07B5  1903               	goto	l812
  1643  07B6  2ED0               	xorlw	1^0	; case 1
  1644  07B7  3A01               	skipnz
  1645  07B8  1903               	goto	l814
  1646  07B9  2ED5               	xorlw	2^1	; case 2
  1647  07BA  3A03               	skipnz
  1648  07BB  1903               	goto	l818
  1649  07BC  2EE4               	xorlw	3^2	; case 3
  1650  07BD  3A01               	skipnz
  1651  07BE  1903               	goto	l824
  1652  07BF  2F00               	xorlw	4^3	; case 4
  1653  07C0  3A07               	skipnz
  1654  07C1  1903               	goto	l828
  1655  07C2  2F1F               	xorlw	6^4	; case 6
  1656  07C3  3A02               	skipnz
  1657  07C4  1903               	goto	l830
  1658  07C5  2F28               	xorlw	7^6	; case 7
  1659  07C6  3A01               	skipnz
  1660  07C7  1903               	goto	l842
  1661  07C8  2F5A               	xorlw	8^7	; case 8
  1662  07C9  3A0F               	skipnz
  1663  07CA  1903               	goto	l844
  1664  07CB  2F65               	xorlw	9^8	; case 9
  1665  07CC  3A01               	skipnz
  1666  07CD  1903               	goto	l848
  1667  07CE  2F90               	goto	l856
  1668  07CF  2FD0               	opt asmopt_pop
  1669                           
  1670                           	
  1671                           l30:	
  1672  07D0                     	line	78
  1673                           	
  1674                           l856:	
  1675  07D0                     ;main.c: 78:         display7seg( cont );
  1676                           	movf	(main@cont+1),w
  1677  07D0  0877               	movwf	(display7seg@c+1)
  1678  07D1  00F1               	movf	(main@cont),w
  1679  07D2  0876               	movwf	(display7seg@c)
  1680  07D3  00F0               	fcall	_display7seg
  1681  07D4  120A  118A  264D  120A  118A  	line	80
  1682                           	
  1683                           l858:	
  1684  07D9                     ;main.c: 80:         if ( cont >= 10)
  1685                           	movf	(main@cont+1),w
  1686  07D9  0877               	xorlw	80h
  1687  07DA  3A80               	movwf	btemp+1
  1688  07DB  00FF               	movlw	(0)^80h
  1689  07DC  3080               	subwf	btemp+1,w
  1690  07DD  027F               	skipz
  1691  07DE  1D03               	goto	u145
  1692  07DF  2FE2               	movlw	0Ah
  1693  07E0  300A               	subwf	(main@cont),w
  1694  07E1  0276               u145:
  1695  07E2                     
  1696                           	skipc
  1697  07E2  1C03               	goto	u141
  1698  07E3  2FE5               	goto	u140
  1699  07E4  2FE6               u141:
  1700  07E5                     	goto	l854
  1701  07E5  2FAE               u140:
  1702  07E6                     	line	81
  1703                           	
  1704                           l860:	
  1705  07E6                     ;main.c: 81:             cont = 0;
  1706                           	clrf	(main@cont)
  1707  07E6  01F6               	clrf	(main@cont+1)
  1708  07E7  01F7               	goto	l854
  1709  07E8  2FAE               	
  1710                           l43:	
  1711  07E9                     	goto	l854
  1712  07E9  2FAE               	line	82
  1713                           ;main.c: 82:         }
  1714                           	
  1715                           l44:	
  1716  07EA                     	goto	l854
  1717  07EA  2FAE               	
  1718                           l45:	
  1719  07EB                     	line	87
  1720                           	
  1721                           l46:	
  1722  07EB                     	global	start
  1723                           	ljmp	start
  1724  07EB  120A  118A  2800   	opt stack 0
  1725                           GLOBAL	__end_of_main
  1726                           	__end_of_main:
  1727  07EE                     	signat	_main,89
  1728                           	global	_s1
  1729                           
  1730 ;; *************** function _s1 *****************
  1731 ;; Defined at:
  1732 ;;		line 41 in file "contatores1.c"
  1733 ;; Parameters:    Size  Location     Type
  1734 ;;		None
  1735 ;; Auto vars:     Size  Location     Type
  1736 ;;		None
  1737 ;; Return value:  Size  Location     Type
  1738 ;;                  2    0[COMMON] int 
  1739 ;; Registers used:
  1740 ;;		wreg, status,2, status,0
  1741 ;; Tracked objects:
  1742 ;;		On entry : 0/0
  1743 ;;		On exit  : 0/0
  1744 ;;		Unchanged: 0/0
  1745 ;; Data sizes:     COMMON   BANK0   BANK1   BANK3   BANK2
  1746 ;;      Params:         2       0       0       0       0
  1747 ;;      Locals:         0       0       0       0       0
  1748 ;;      Temps:          2       0       0       0       0
  1749 ;;      Totals:         4       0       0       0       0
  1750 ;;Total ram usage:        4 bytes
  1751 ;; Hardware stack levels used:    1
  1752 ;; This function calls:
  1753 ;;		Nothing
  1754 ;; This function is called by:
  1755 ;;		_main
  1756 ;; This function uses a non-reentrant model
  1757 ;;
  1758                           psect	text1,local,class=CODE,delta=2,merge=1,group=0
  1759                           	file	"contatores1.c"
  1760                           	line	41
  1761                           global __ptext1
  1762                           __ptext1:	;psect for function _s1
  1763  0677                     psect	text1
  1764                           	file	"contatores1.c"
  1765                           	line	41
  1766                           	global	__size_of_s1
  1767                           	__size_of_s1	equ	__end_of_s1-_s1
  1768  000C                     	
  1769                           _s1:	
  1770  0677                     ;incstack = 0
  1771                           	opt	stack 7
  1772                           ; Regs used in _s1: [wreg+status,2+status,0]
  1773                           	line	43
  1774                           	
  1775                           l784:	
  1776  0677                     ;contatores1.c: 43:     return(PORTDbits.RD0);
  1777                           	bcf	status, 5	;RP0=0, select bank0
  1778  0677  1283               	bcf	status, 6	;RP1=0, select bank0
  1779  0678  1303               	movf	(8),w	;volatile
  1780  0679  0808               	andlw	(1<<1)-1
  1781  067A  3901               	movwf	(??_s1+0)+0
  1782  067B  00F2               	clrf	(??_s1+0)+0+1
  1783  067C  01F3               	movf	0+(??_s1+0)+0,w
  1784  067D  0872               	movwf	(?_s1)
  1785  067E  00F0               	movf	1+(??_s1+0)+0,w
  1786  067F  0873               	movwf	(?_s1+1)
  1787  0680  00F1               	goto	l76
  1788  0681  2E82               	
  1789                           l786:	
  1790  0682                     	line	44
  1791                           	
  1792                           l76:	
  1793  0682                     	return
  1794  0682  0008               	opt stack 0
  1795                           GLOBAL	__end_of_s1
  1796                           	__end_of_s1:
  1797  0683                     	signat	_s1,90
  1798                           	global	_s0
  1799                           
  1800 ;; *************** function _s0 *****************
  1801 ;; Defined at:
  1802 ;;		line 45 in file "contatores1.c"
  1803 ;; Parameters:    Size  Location     Type
  1804 ;;		None
  1805 ;; Auto vars:     Size  Location     Type
  1806 ;;		None
  1807 ;; Return value:  Size  Location     Type
  1808 ;;                  2    0[COMMON] int 
  1809 ;; Registers used:
  1810 ;;		wreg, status,2, status,0
  1811 ;; Tracked objects:
  1812 ;;		On entry : 0/0
  1813 ;;		On exit  : 0/0
  1814 ;;		Unchanged: 0/0
  1815 ;; Data sizes:     COMMON   BANK0   BANK1   BANK3   BANK2
  1816 ;;      Params:         2       0       0       0       0
  1817 ;;      Locals:         0       0       0       0       0
  1818 ;;      Temps:          2       0       0       0       0
  1819 ;;      Totals:         4       0       0       0       0
  1820 ;;Total ram usage:        4 bytes
  1821 ;; Hardware stack levels used:    1
  1822 ;; This function calls:
  1823 ;;		Nothing
  1824 ;; This function is called by:
  1825 ;;		_main
  1826 ;; This function uses a non-reentrant model
  1827 ;;
  1828                           psect	text2,local,class=CODE,delta=2,merge=1,group=0
  1829                           	line	45
  1830                           global __ptext2
  1831                           __ptext2:	;psect for function _s0
  1832  066B                     psect	text2
  1833                           	file	"contatores1.c"
  1834                           	line	45
  1835                           	global	__size_of_s0
  1836                           	__size_of_s0	equ	__end_of_s0-_s0
  1837  000C                     	
  1838                           _s0:	
  1839  066B                     ;incstack = 0
  1840                           	opt	stack 7
  1841                           ; Regs used in _s0: [wreg+status,2+status,0]
  1842                           	line	47
  1843                           	
  1844                           l804:	
  1845  066B                     ;contatores1.c: 47:     return(PORTDbits.RD1);
  1846                           	bcf	status, 5	;RP0=0, select bank0
  1847  066B  1283               	bcf	status, 6	;RP1=0, select bank0
  1848  066C  1303               	rrf	(8),w	;volatile
  1849  066D  0C08               	andlw	(1<<1)-1
  1850  066E  3901               	movwf	(??_s0+0)+0
  1851  066F  00F2               	clrf	(??_s0+0)+0+1
  1852  0670  01F3               	movf	0+(??_s0+0)+0,w
  1853  0671  0872               	movwf	(?_s0)
  1854  0672  00F0               	movf	1+(??_s0+0)+0,w
  1855  0673  0873               	movwf	(?_s0+1)
  1856  0674  00F1               	goto	l79
  1857  0675  2E76               	
  1858                           l806:	
  1859  0676                     	line	48
  1860                           	
  1861                           l79:	
  1862  0676                     	return
  1863  0676  0008               	opt stack 0
  1864                           GLOBAL	__end_of_s0
  1865                           	__end_of_s0:
  1866  0677                     	signat	_s0,90
  1867                           	global	_display7seg_init
  1868                           
  1869 ;; *************** function _display7seg_init *****************
  1870 ;; Defined at:
  1871 ;;		line 17 in file "display.c"
  1872 ;; Parameters:    Size  Location     Type
  1873 ;;		None
  1874 ;; Auto vars:     Size  Location     Type
  1875 ;;		None
  1876 ;; Return value:  Size  Location     Type
  1877 ;;                  1    wreg      void 
  1878 ;; Registers used:
  1879 ;;		status,2
  1880 ;; Tracked objects:
  1881 ;;		On entry : 0/0
  1882 ;;		On exit  : 0/0
  1883 ;;		Unchanged: 0/0
  1884 ;; Data sizes:     COMMON   BANK0   BANK1   BANK3   BANK2
  1885 ;;      Params:         0       0       0       0       0
  1886 ;;      Locals:         0       0       0       0       0
  1887 ;;      Temps:          0       0       0       0       0
  1888 ;;      Totals:         0       0       0       0       0
  1889 ;;Total ram usage:        0 bytes
  1890 ;; Hardware stack levels used:    1
  1891 ;; This function calls:
  1892 ;;		Nothing
  1893 ;; This function is called by:
  1894 ;;		_main
  1895 ;; This function uses a non-reentrant model
  1896 ;;
  1897                           psect	text3,local,class=CODE,delta=2,merge=1,group=0
  1898                           	file	"display.c"
  1899                           	line	17
  1900                           global __ptext3
  1901                           __ptext3:	;psect for function _display7seg_init
  1902  0656                     psect	text3
  1903                           	file	"display.c"
  1904                           	line	17
  1905                           	global	__size_of_display7seg_init
  1906                           	__size_of_display7seg_init	equ	__end_of_display7seg_init-_display7seg_init
  1907  000A                     	
  1908                           _display7seg_init:	
  1909  0656                     ;incstack = 0
  1910                           	opt	stack 7
  1911                           ; Regs used in _display7seg_init: [status,2]
  1912                           	line	19
  1913                           	
  1914                           l668:	
  1915  0656                     ;display.c: 19:     ANSELH = 0;
  1916                           	bsf	status, 5	;RP0=1, select bank3
  1917  0656  1683               	bsf	status, 6	;RP1=1, select bank3
  1918  0657  1703               	clrf	(393)^0180h	;volatile
  1919  0658  0189               	line	20
  1920                           ;display.c: 20:     TRISB = 0x00;
  1921                           	bsf	status, 5	;RP0=1, select bank1
  1922  0659  1683               	bcf	status, 6	;RP1=0, select bank1
  1923  065A  1303               	clrf	(134)^080h	;volatile
  1924  065B  0186               	line	21
  1925                           ;display.c: 21:     PORTB = 0x00;
  1926                           	bcf	status, 5	;RP0=0, select bank0
  1927  065C  1283               	bcf	status, 6	;RP1=0, select bank0
  1928  065D  1303               	clrf	(6)	;volatile
  1929  065E  0186               	line	22
  1930                           	
  1931                           l90:	
  1932  065F                     	return
  1933  065F  0008               	opt stack 0
  1934                           GLOBAL	__end_of_display7seg_init
  1935                           	__end_of_display7seg_init:
  1936  0660                     	signat	_display7seg_init,89
  1937                           	global	_display7seg
  1938                           
  1939 ;; *************** function _display7seg *****************
  1940 ;; Defined at:
  1941 ;;		line 24 in file "display.c"
  1942 ;; Parameters:    Size  Location     Type
  1943 ;;  c               2    0[COMMON] int 
  1944 ;; Auto vars:     Size  Location     Type
  1945 ;;		None
  1946 ;; Return value:  Size  Location     Type
  1947 ;;                  1    wreg      void 
  1948 ;; Registers used:
  1949 ;;		wreg, fsr0l, fsr0h, status,2, status,0
  1950 ;; Tracked objects:
  1951 ;;		On entry : 0/0
  1952 ;;		On exit  : 0/0
  1953 ;;		Unchanged: 0/0
  1954 ;; Data sizes:     COMMON   BANK0   BANK1   BANK3   BANK2
  1955 ;;      Params:         2       0       0       0       0
  1956 ;;      Locals:         0       0       0       0       0
  1957 ;;      Temps:          0       0       0       0       0
  1958 ;;      Totals:         2       0       0       0       0
  1959 ;;Total ram usage:        2 bytes
  1960 ;; Hardware stack levels used:    1
  1961 ;; This function calls:
  1962 ;;		Nothing
  1963 ;; This function is called by:
  1964 ;;		_main
  1965 ;; This function uses a non-reentrant model
  1966 ;;
  1967                           psect	text4,local,class=CODE,delta=2,merge=1,group=0
  1968                           	line	24
  1969                           global __ptext4
  1970                           __ptext4:	;psect for function _display7seg
  1971  064D                     psect	text4
  1972                           	file	"display.c"
  1973                           	line	24
  1974                           	global	__size_of_display7seg
  1975                           	__size_of_display7seg	equ	__end_of_display7seg-_display7seg
  1976  0009                     	
  1977                           _display7seg:	
  1978  064D                     ;incstack = 0
  1979                           	opt	stack 7
  1980                           ; Regs used in _display7seg: [wreg-fsr0h+status,2+status,0]
  1981                           	line	26
  1982                           	
  1983                           l808:	
  1984  064D                     ;display.c: 24: void display7seg ( int c );display.c: 25: {;display.c: 26:     PORTB = v
                                 etor[c];
  1985                           	movf	(display7seg@c),w
  1986  064D  0870               	addlw	low(_vetor|((0x0)<<8))&0ffh
  1987  064E  3E20               	movwf	fsr0
  1988  064F  0084               	bcf	status, 7	;select IRP bank0
  1989  0650  1383               	movf	indf,w
  1990  0651  0800               	bcf	status, 5	;RP0=0, select bank0
  1991  0652  1283               	bcf	status, 6	;RP1=0, select bank0
  1992  0653  1303               	movwf	(6)	;volatile
  1993  0654  0086               	line	27
  1994                           	
  1995                           l93:	
  1996  0655                     	return
  1997  0655  0008               	opt stack 0
  1998                           GLOBAL	__end_of_display7seg
  1999                           	__end_of_display7seg:
  2000  0656                     	signat	_display7seg,4217
  2001                           	global	_delay
  2002                           
  2003 ;; *************** function _delay *****************
  2004 ;; Defined at:
  2005 ;;		line 14 in file "delay.c"
  2006 ;; Parameters:    Size  Location     Type
  2007 ;;  t               2    0[COMMON] int 
  2008 ;; Auto vars:     Size  Location     Type
  2009 ;;		None
  2010 ;; Return value:  Size  Location     Type
  2011 ;;                  1    wreg      void 
  2012 ;; Registers used:
  2013 ;;		wreg, status,2, status,0
  2014 ;; Tracked objects:
  2015 ;;		On entry : 0/0
  2016 ;;		On exit  : 0/0
  2017 ;;		Unchanged: 0/0
  2018 ;; Data sizes:     COMMON   BANK0   BANK1   BANK3   BANK2
  2019 ;;      Params:         2       0       0       0       0
  2020 ;;      Locals:         0       0       0       0       0
  2021 ;;      Temps:          1       0       0       0       0
  2022 ;;      Totals:         3       0       0       0       0
  2023 ;;Total ram usage:        3 bytes
  2024 ;; Hardware stack levels used:    1
  2025 ;; This function calls:
  2026 ;;		Nothing
  2027 ;; This function is called by:
  2028 ;;		_main
  2029 ;; This function uses a non-reentrant model
  2030 ;;
  2031                           psect	text5,local,class=CODE,delta=2,merge=1,group=0
  2032                           	file	"delay.c"
  2033                           	line	14
  2034                           global __ptext5
  2035                           __ptext5:	;psect for function _delay
  2036  06B3                     psect	text5
  2037                           	file	"delay.c"
  2038                           	line	14
  2039                           	global	__size_of_delay
  2040                           	__size_of_delay	equ	__end_of_delay-_delay
  2041  0017                     	
  2042                           _delay:	
  2043  06B3                     ;incstack = 0
  2044                           	opt	stack 7
  2045                           ; Regs used in _delay: [wreg+status,2+status,0]
  2046                           	line	16
  2047                           	
  2048                           l798:	
  2049  06B3                     ;delay.c: 14: void delay (int t);delay.c: 15: {;delay.c: 16:  while(t)
  2050                           	goto	l802
  2051  06B3  2EC2               	
  2052                           l52:	
  2053  06B4                     	line	18
  2054                           	
  2055                           l800:	
  2056  06B4                     ;delay.c: 17:     {;delay.c: 18:         --t;
  2057                           	movlw	0FFh
  2058  06B4  30FF               	addwf	(delay@t),f
  2059  06B5  07F0               	skipnc
  2060  06B6  1803               	incf	(delay@t+1),f
  2061  06B7  0AF1               	movlw	0FFh
  2062  06B8  30FF               	addwf	(delay@t+1),f
  2063  06B9  07F1               	line	19
  2064                           ;delay.c: 19:         _delay((unsigned long)((1)*(4000000/4000.0)));
  2065                           	opt asmopt_push
  2066                           opt asmopt_off
  2067                           	movlw	199
  2068  06BA  30C7               movwf	((??_delay+0)+0),f
  2069  06BB  00F2               	u157:
  2070  06BC                     	nop2
  2071  06BC  2EBD               decfsz	(??_delay+0)+0,f
  2072  06BD  0BF2               	goto	u157
  2073  06BE  2EBC               	nop2
  2074  06BF  2EC0               	nop2
  2075  06C0  2EC1               opt asmopt_pop
  2076                           
  2077                           	goto	l802
  2078  06C1  2EC2               	line	20
  2079                           ;delay.c: 20:     }
  2080                           	
  2081                           l51:	
  2082  06C2                     	line	16
  2083                           	
  2084                           l802:	
  2085  06C2                     ;delay.c: 16:  while(t)
  2086                           	movf	((delay@t)),w
  2087  06C2  0870               iorwf	((delay@t+1)),w
  2088  06C3  0471               	btfss	status,2
  2089  06C4  1D03               	goto	u81
  2090  06C5  2EC7               	goto	u80
  2091  06C6  2EC8               u81:
  2092  06C7                     	goto	l800
  2093  06C7  2EB4               u80:
  2094  06C8                     	goto	l54
  2095  06C8  2EC9               	
  2096                           l53:	
  2097  06C9                     	line	21
  2098                           	
  2099                           l54:	
  2100  06C9                     	return
  2101  06C9  0008               	opt stack 0
  2102                           GLOBAL	__end_of_delay
  2103                           	__end_of_delay:
  2104  06CA                     	signat	_delay,4217
  2105                           	global	_contatores_init
  2106                           
  2107 ;; *************** function _contatores_init *****************
  2108 ;; Defined at:
  2109 ;;		line 12 in file "contatores1.c"
  2110 ;; Parameters:    Size  Location     Type
  2111 ;;		None
  2112 ;; Auto vars:     Size  Location     Type
  2113 ;;		None
  2114 ;; Return value:  Size  Location     Type
  2115 ;;                  1    wreg      void 
  2116 ;; Registers used:
  2117 ;;		None
  2118 ;; Tracked objects:
  2119 ;;		On entry : 0/0
  2120 ;;		On exit  : 0/0
  2121 ;;		Unchanged: 0/0
  2122 ;; Data sizes:     COMMON   BANK0   BANK1   BANK3   BANK2
  2123 ;;      Params:         0       0       0       0       0
  2124 ;;      Locals:         0       0       0       0       0
  2125 ;;      Temps:          0       0       0       0       0
  2126 ;;      Totals:         0       0       0       0       0
  2127 ;;Total ram usage:        0 bytes
  2128 ;; Hardware stack levels used:    1
  2129 ;; This function calls:
  2130 ;;		Nothing
  2131 ;; This function is called by:
  2132 ;;		_main
  2133 ;; This function uses a non-reentrant model
  2134 ;;
  2135                           psect	text6,local,class=CODE,delta=2,merge=1,group=0
  2136                           	file	"contatores1.c"
  2137                           	line	12
  2138                           global __ptext6
  2139                           __ptext6:	;psect for function _contatores_init
  2140  0660                     psect	text6
  2141                           	file	"contatores1.c"
  2142                           	line	12
  2143                           	global	__size_of_contatores_init
  2144                           	__size_of_contatores_init	equ	__end_of_contatores_init-_contatores_init
  2145  000B                     	
  2146                           _contatores_init:	
  2147  0660                     ;incstack = 0
  2148                           	opt	stack 7
  2149                           ; Regs used in _contatores_init: []
  2150                           	line	14
  2151                           	
  2152                           l666:	
  2153  0660                     ;contatores1.c: 14:     TRISDbits.TRISD5 = 0;
  2154                           	bsf	status, 5	;RP0=1, select bank1
  2155  0660  1683               	bcf	status, 6	;RP1=0, select bank1
  2156  0661  1303               	bcf	(136)^080h,5	;volatile
  2157  0662  1288               	line	15
  2158                           ;contatores1.c: 15:     TRISDbits.TRISD6 = 0;
  2159                           	bcf	(136)^080h,6	;volatile
  2160  0663  1308               	line	16
  2161                           ;contatores1.c: 16:     TRISDbits.TRISD7 = 0;
  2162                           	bcf	(136)^080h,7	;volatile
  2163  0664  1388               	line	17
  2164                           ;contatores1.c: 17:     PORTDbits.RD5 = 0;
  2165                           	bcf	status, 5	;RP0=0, select bank0
  2166  0665  1283               	bcf	status, 6	;RP1=0, select bank0
  2167  0666  1303               	bcf	(8),5	;volatile
  2168  0667  1288               	line	18
  2169                           ;contatores1.c: 18:     PORTDbits.RD6 = 0;
  2170                           	bcf	(8),6	;volatile
  2171  0668  1308               	line	19
  2172                           ;contatores1.c: 19:     PORTDbits.RD7 = 0;
  2173                           	bcf	(8),7	;volatile
  2174  0669  1388               	line	20
  2175                           	
  2176                           l61:	
  2177  066A                     	return
  2178  066A  0008               	opt stack 0
  2179                           GLOBAL	__end_of_contatores_init
  2180                           	__end_of_contatores_init:
  2181  066B                     	signat	_contatores_init,89
  2182                           	global	_K3
  2183                           
  2184 ;; *************** function _K3 *****************
  2185 ;; Defined at:
  2186 ;;		line 32 in file "contatores1.c"
  2187 ;; Parameters:    Size  Location     Type
  2188 ;;  estado          2    0[COMMON] int 
  2189 ;; Auto vars:     Size  Location     Type
  2190 ;;		None
  2191 ;; Return value:  Size  Location     Type
  2192 ;;                  1    wreg      void 
  2193 ;; Registers used:
  2194 ;;		wreg, status,0
  2195 ;; Tracked objects:
  2196 ;;		On entry : 0/0
  2197 ;;		On exit  : 0/0
  2198 ;;		Unchanged: 0/0
  2199 ;; Data sizes:     COMMON   BANK0   BANK1   BANK3   BANK2
  2200 ;;      Params:         2       0       0       0       0
  2201 ;;      Locals:         0       0       0       0       0
  2202 ;;      Temps:          0       0       0       0       0
  2203 ;;      Totals:         2       0       0       0       0
  2204 ;;Total ram usage:        2 bytes
  2205 ;; Hardware stack levels used:    1
  2206 ;; This function calls:
  2207 ;;		Nothing
  2208 ;; This function is called by:
  2209 ;;		_main
  2210 ;; This function uses a non-reentrant model
  2211 ;;
  2212                           psect	text7,local,class=CODE,delta=2,merge=1,group=0
  2213                           	line	32
  2214                           global __ptext7
  2215                           __ptext7:	;psect for function _K3
  2216  0645                     psect	text7
  2217                           	file	"contatores1.c"
  2218                           	line	32
  2219                           	global	__size_of_K3
  2220                           	__size_of_K3	equ	__end_of_K3-_K3
  2221  0008                     	
  2222                           _K3:	
  2223  0645                     ;incstack = 0
  2224                           	opt	stack 7
  2225                           ; Regs used in _K3: [wreg+status,0]
  2226                           	line	34
  2227                           	
  2228                           l796:	
  2229  0645                     ;contatores1.c: 32: void K3 ( int estado );contatores1.c: 33: {;contatores1.c: 34:     P
                                 ORTDbits.RD5 = estado;
  2230                           	rrf	(K3@estado),w
  2231  0645  0C70               	bcf	status, 5	;RP0=0, select bank0
  2232  0646  1283               	bcf	status, 6	;RP1=0, select bank0
  2233  0647  1303               	skipc
  2234  0648  1C03               	bcf	(8),5	;volatile
  2235  0649  1288               	skipnc
  2236  064A  1803               	bsf	(8),5	;volatile
  2237  064B  1688               	line	35
  2238                           	
  2239                           l70:	
  2240  064C                     	return
  2241  064C  0008               	opt stack 0
  2242                           GLOBAL	__end_of_K3
  2243                           	__end_of_K3:
  2244  064D                     	signat	_K3,4217
  2245                           	global	_K2
  2246                           
  2247 ;; *************** function _K2 *****************
  2248 ;; Defined at:
  2249 ;;		line 27 in file "contatores1.c"
  2250 ;; Parameters:    Size  Location     Type
  2251 ;;  estado          2    0[COMMON] int 
  2252 ;; Auto vars:     Size  Location     Type
  2253 ;;		None
  2254 ;; Return value:  Size  Location     Type
  2255 ;;                  1    wreg      void 
  2256 ;; Registers used:
  2257 ;;		wreg, status,0
  2258 ;; Tracked objects:
  2259 ;;		On entry : 0/0
  2260 ;;		On exit  : 0/0
  2261 ;;		Unchanged: 0/0
  2262 ;; Data sizes:     COMMON   BANK0   BANK1   BANK3   BANK2
  2263 ;;      Params:         2       0       0       0       0
  2264 ;;      Locals:         0       0       0       0       0
  2265 ;;      Temps:          0       0       0       0       0
  2266 ;;      Totals:         2       0       0       0       0
  2267 ;;Total ram usage:        2 bytes
  2268 ;; Hardware stack levels used:    1
  2269 ;; This function calls:
  2270 ;;		Nothing
  2271 ;; This function is called by:
  2272 ;;		_main
  2273 ;; This function uses a non-reentrant model
  2274 ;;
  2275                           psect	text8,local,class=CODE,delta=2,merge=1,group=0
  2276                           	line	27
  2277                           global __ptext8
  2278                           __ptext8:	;psect for function _K2
  2279  063D                     psect	text8
  2280                           	file	"contatores1.c"
  2281                           	line	27
  2282                           	global	__size_of_K2
  2283                           	__size_of_K2	equ	__end_of_K2-_K2
  2284  0008                     	
  2285                           _K2:	
  2286  063D                     ;incstack = 0
  2287                           	opt	stack 7
  2288                           ; Regs used in _K2: [wreg+status,0]
  2289                           	line	29
  2290                           	
  2291                           l794:	
  2292  063D                     ;contatores1.c: 27: void K2 ( int estado );contatores1.c: 28: {;contatores1.c: 29:     P
                                 ORTDbits.RD6 = estado;
  2293                           	rrf	(K2@estado),w
  2294  063D  0C70               	bcf	status, 5	;RP0=0, select bank0
  2295  063E  1283               	bcf	status, 6	;RP1=0, select bank0
  2296  063F  1303               	skipc
  2297  0640  1C03               	bcf	(8),6	;volatile
  2298  0641  1308               	skipnc
  2299  0642  1803               	bsf	(8),6	;volatile
  2300  0643  1708               	line	30
  2301                           	
  2302                           l67:	
  2303  0644                     	return
  2304  0644  0008               	opt stack 0
  2305                           GLOBAL	__end_of_K2
  2306                           	__end_of_K2:
  2307  0645                     	signat	_K2,4217
  2308                           	global	_K1status
  2309                           
  2310 ;; *************** function _K1status *****************
  2311 ;; Defined at:
  2312 ;;		line 37 in file "contatores1.c"
  2313 ;; Parameters:    Size  Location     Type
  2314 ;;		None
  2315 ;; Auto vars:     Size  Location     Type
  2316 ;;		None
  2317 ;; Return value:  Size  Location     Type
  2318 ;;                  2    0[COMMON] int 
  2319 ;; Registers used:
  2320 ;;		wreg, status,2, status,0
  2321 ;; Tracked objects:
  2322 ;;		On entry : 0/0
  2323 ;;		On exit  : 0/0
  2324 ;;		Unchanged: 0/0
  2325 ;; Data sizes:     COMMON   BANK0   BANK1   BANK3   BANK2
  2326 ;;      Params:         2       0       0       0       0
  2327 ;;      Locals:         0       0       0       0       0
  2328 ;;      Temps:          2       0       0       0       0
  2329 ;;      Totals:         4       0       0       0       0
  2330 ;;Total ram usage:        4 bytes
  2331 ;; Hardware stack levels used:    1
  2332 ;; This function calls:
  2333 ;;		Nothing
  2334 ;; This function is called by:
  2335 ;;		_main
  2336 ;; This function uses a non-reentrant model
  2337 ;;
  2338                           psect	text9,local,class=CODE,delta=2,merge=1,group=0
  2339                           	line	37
  2340                           global __ptext9
  2341                           __ptext9:	;psect for function _K1status
  2342  0683                     psect	text9
  2343                           	file	"contatores1.c"
  2344                           	line	37
  2345                           	global	__size_of_K1status
  2346                           	__size_of_K1status	equ	__end_of_K1status-_K1status
  2347  000D                     	
  2348                           _K1status:	
  2349  0683                     ;incstack = 0
  2350                           	opt	stack 7
  2351                           ; Regs used in _K1status: [wreg+status,2+status,0]
  2352                           	line	39
  2353                           	
  2354                           l788:	
  2355  0683                     ;contatores1.c: 39:     return ( PORTDbits.RD7 );
  2356                           	bcf	status, 5	;RP0=0, select bank0
  2357  0683  1283               	bcf	status, 6	;RP1=0, select bank0
  2358  0684  1303               	rlf	(8),w	;volatile
  2359  0685  0D08               	rlf	(8),w	;volatile
  2360  0686  0D08               	andlw	1
  2361  0687  3901               	movwf	(??_K1status+0)+0
  2362  0688  00F2               	clrf	(??_K1status+0)+0+1
  2363  0689  01F3               	movf	0+(??_K1status+0)+0,w
  2364  068A  0872               	movwf	(?_K1status)
  2365  068B  00F0               	movf	1+(??_K1status+0)+0,w
  2366  068C  0873               	movwf	(?_K1status+1)
  2367  068D  00F1               	goto	l73
  2368  068E  2E8F               	
  2369                           l790:	
  2370  068F                     	line	40
  2371                           	
  2372                           l73:	
  2373  068F                     	return
  2374  068F  0008               	opt stack 0
  2375                           GLOBAL	__end_of_K1status
  2376                           	__end_of_K1status:
  2377  0690                     	signat	_K1status,90
  2378                           	global	_K1
  2379                           
  2380 ;; *************** function _K1 *****************
  2381 ;; Defined at:
  2382 ;;		line 22 in file "contatores1.c"
  2383 ;; Parameters:    Size  Location     Type
  2384 ;;  estado          2    0[COMMON] int 
  2385 ;; Auto vars:     Size  Location     Type
  2386 ;;		None
  2387 ;; Return value:  Size  Location     Type
  2388 ;;                  1    wreg      void 
  2389 ;; Registers used:
  2390 ;;		wreg, status,0
  2391 ;; Tracked objects:
  2392 ;;		On entry : 0/0
  2393 ;;		On exit  : 0/0
  2394 ;;		Unchanged: 0/0
  2395 ;; Data sizes:     COMMON   BANK0   BANK1   BANK3   BANK2
  2396 ;;      Params:         2       0       0       0       0
  2397 ;;      Locals:         0       0       0       0       0
  2398 ;;      Temps:          0       0       0       0       0
  2399 ;;      Totals:         2       0       0       0       0
  2400 ;;Total ram usage:        2 bytes
  2401 ;; Hardware stack levels used:    1
  2402 ;; This function calls:
  2403 ;;		Nothing
  2404 ;; This function is called by:
  2405 ;;		_main
  2406 ;; This function uses a non-reentrant model
  2407 ;;
  2408                           psect	text10,local,class=CODE,delta=2,merge=1,group=0
  2409                           	line	22
  2410                           global __ptext10
  2411                           __ptext10:	;psect for function _K1
  2412  0635                     psect	text10
  2413                           	file	"contatores1.c"
  2414                           	line	22
  2415                           	global	__size_of_K1
  2416                           	__size_of_K1	equ	__end_of_K1-_K1
  2417  0008                     	
  2418                           _K1:	
  2419  0635                     ;incstack = 0
  2420                           	opt	stack 7
  2421                           ; Regs used in _K1: [wreg+status,0]
  2422                           	line	24
  2423                           	
  2424                           l792:	
  2425  0635                     ;contatores1.c: 22: void K1 ( int estado );contatores1.c: 23: {;contatores1.c: 24:     P
                                 ORTDbits.RD7 = estado;
  2426                           	rrf	(K1@estado),w
  2427  0635  0C70               	bcf	status, 5	;RP0=0, select bank0
  2428  0636  1283               	bcf	status, 6	;RP1=0, select bank0
  2429  0637  1303               	skipc
  2430  0638  1C03               	bcf	(8),7	;volatile
  2431  0639  1388               	skipnc
  2432  063A  1803               	bsf	(8),7	;volatile
  2433  063B  1788               	line	25
  2434                           	
  2435                           l64:	
  2436  063C                     	return
  2437  063C  0008               	opt stack 0
  2438                           GLOBAL	__end_of_K1
  2439                           	__end_of_K1:
  2440  063D                     	signat	_K1,4217
  2441                           global	___latbits
  2442                           ___latbits	equ	2
  2443  0002                     	global	btemp
  2444                           	btemp set 07Eh
  2445  007E                     
  2446                           	DABS	1,126,2	;btemp
  2447                           	global	wtemp0
  2448                           	wtemp0 set btemp+0
  2449  007E                     	end


Data Sizes:
    Strings     0
    Constant    0
    Data        16
    BSS         0
    Persistent  0
    Stack       0

Auto Spaces:
    Space          Size  Autos    Used
    COMMON           14     10      10
    BANK0            80      0      16
    BANK1            80      0       0
    BANK3            96      0       0
    BANK2            96      0       0

Pointer List with Targets:

    None.

Critical Paths under _main in COMMON

    _main->_K1status
    _main->_s0
    _main->_s1

Critical Paths under _main in BANK0

    None.

Critical Paths under _main in BANK1

    None.

Critical Paths under _main in BANK3

    None.

Critical Paths under _main in BANK2

    None.

Call Graph Tables:

 ---------------------------------------------------------------------------------
 (Depth) Function   	        Calls       Base Space   Used Autos Params    Refs
 ---------------------------------------------------------------------------------
 (0) _main                                                 6     6      0    1051
                                              4 COMMON     6     6      0
                                 _K1
                           _K1status
                                 _K2
                                 _K3
                    _contatores_init
                              _delay
                        _display7seg
                   _display7seg_init
                                 _s0
                                 _s1
 ---------------------------------------------------------------------------------
 (1) _s1                                                   4     2      2       0
                                              0 COMMON     4     2      2
 ---------------------------------------------------------------------------------
 (1) _s0                                                   4     2      2       0
                                              0 COMMON     4     2      2
 ---------------------------------------------------------------------------------
 (1) _display7seg_init                                     0     0      0       0
 ---------------------------------------------------------------------------------
 (1) _display7seg                                          2     0      2      98
                                              0 COMMON     2     0      2
 ---------------------------------------------------------------------------------
 (1) _delay                                                3     1      2      99
                                              0 COMMON     3     1      2
 ---------------------------------------------------------------------------------
 (1) _contatores_init                                      0     0      0       0
 ---------------------------------------------------------------------------------
 (1) _K3                                                   2     0      2     250
                                              0 COMMON     2     0      2
 ---------------------------------------------------------------------------------
 (1) _K2                                                   2     0      2     250
                                              0 COMMON     2     0      2
 ---------------------------------------------------------------------------------
 (1) _K1status                                             4     2      2       0
                                              0 COMMON     4     2      2
 ---------------------------------------------------------------------------------
 (1) _K1                                                   2     0      2     250
                                              0 COMMON     2     0      2
 ---------------------------------------------------------------------------------
 Estimated maximum stack depth 1
 ---------------------------------------------------------------------------------

 Call Graph Graphs:

 _main (ROOT)
   _K1
   _K1status
   _K2
   _K3
   _contatores_init
   _delay
   _display7seg
   _display7seg_init
   _s0
   _s1

 Address spaces:
Name               Size   Autos  Total    Cost      Usage
BANK3               60      0       0       9        0.0%
BITBANK3            60      0       0       8        0.0%
SFR3                 0      0       0       4        0.0%
BITSFR3              0      0       0       4        0.0%
BANK2               60      0       0      11        0.0%
BITBANK2            60      0       0      10        0.0%
SFR2                 0      0       0       5        0.0%
BITSFR2              0      0       0       5        0.0%
BANK1               50      0       0       7        0.0%
BITBANK1            50      0       0       6        0.0%
SFR1                 0      0       0       2        0.0%
BITSFR1              0      0       0       2        0.0%
BANK0               50      0      10       5       20.0%
BITBANK0            50      0       0       4        0.0%
SFR0                 0      0       0       1        0.0%
BITSFR0              0      0       0       1        0.0%
COMMON               E      A       A       1       71.4%
BITCOMMON            E      0       0       0        0.0%
CODE                 0      0       0       0        0.0%
DATA                 0      0      1A      12        0.0%
ABS                  0      0      1A       3        0.0%
NULL                 0      0       0       0        0.0%
STACK                0      0       0       2        0.0%
EEDATA             100      0       0       0        0.0%


Microchip Technology PIC Macro Assembler V2.00 build -1524193055 
Symbol Table                                                                                   Thu Mar 04 15:48:05 2021

             ?_display7seg 0070                          pc 0002                __CFG_CP$OFF 0000  
                       _K1 0635                         _K2 063D                         _K3 0645  
                       l30 07D0                         l31 06D5                         l40 0765  
                       l32 06E4                         l41 078F                         l33 06FF  
                       l42 0790                         l34 0700                         l51 06C2  
                       l43 07E9                         l35 071F                         l27 06CF  
                       l52 06B4                         l44 07EA                         l28 07AE  
                       l36 0728                         l61 066A                         l53 06C9  
                       l45 07EB                         l37 0749                         l29 06D0  
                       l70 064C                         l54 06C9                         l46 07EB  
                       l38 0759                         l39 075A                         l64 063C  
                       l73 068F                         l90 065F                         l67 0644  
                       l76 0682                         l93 0655                         l79 0676  
                       u80 06C8                         u81 06C7                         u90 06EF  
                       u91 06EE                         _s0 066B                         _s1 0677  
                       fsr 0004                        ?_K1 0070                        ?_K2 0070  
                      ?_K3 0070                        ?_s0 0070                        ?_s1 0070  
                      l800 06B4                        l802 06C2                        l810 06CA  
                      l804 066B                        l820 06EF                        l812 06D0  
                      l806 0676                        l830 0728                        l822 06FA  
                      l814 06D5                        l808 064D                        l840 0754  
                      l832 0731                        l824 0700                        l816 06DF  
                      l666 0660                        l850 07A8                        l842 075A  
                      l834 0737                        l826 071A                        l818 06E4  
                      l668 0656                        l860 07E6                        l852 07AD  
                      l844 0765                        l836 0744                        l828 071F  
                      l790 068F                        l846 078A                        l838 0749  
                      l854 07AE                        l792 0635                        l784 0677  
                      l848 0790                        l856 07D0                        l794 063D  
                      l786 0682                        l858 07D9                        l788 0683  
                      l796 0645                        l798 06B3                        l898 07B3  
                      u100 06FA                        u101 06F9                        u110 0744  
                      u111 0743                        u120 0754                        u121 0753  
                      u130 078A                        u131 0789                        u115 0740  
                      u140 07E6                        u141 07E5                        u145 07E2  
                      u157 06BC               __CFG_CPD$OFF 0000                        fsr0 0004  
                      indf 0000                       ??_K1 0072                       ??_K2 0072  
                     ??_K3 0072                       ??_s0 0072                       ??_s1 0072  
             __CFG_LVP$OFF 0000               __CFG_WRT$OFF 0000                       _main 06CA  
                     btemp 007E                       start 0000              __CFG_IESO$OFF 0000  
                    ?_main 0070              __CFG_WDTE$OFF 0000           __end_of_K1status 0690  
                    _PORTB 0006                      _TRISB 0086               display7seg@c 0070  
           __CFG_FCMEN$OFF 0000                      _delay 06B3                      _vetor 0020  
                    main@t 0074             __CFG_BOREN$OFF 0000                      pclath 000A  
                    status 0003                      wtemp0 007E             __CFG_MCLRE$OFF 0000  
          __initialization 07EE               __end_of_main 07EE                     ??_main 0074  
                   ?_delay 0070                     _ANSELH 0189             __CFG_PWRTE$OFF 0000  
        ?_display7seg_init 0070         ??_display7seg_init 0070                     delay@t 0070  
     __size_of_display7seg 0009            _contatores_init 0660    __end_of__initialization 07FC  
                ?_K1status 0070             __pcstackCOMMON 0070               __pidataBANK0 0690  
            __end_of_delay 06CA                 __end_of_K1 063D                 __end_of_K2 0645  
               __end_of_K3 064D                 __end_of_s0 0677                 __end_of_s1 0683  
                  ??_delay 0072                 ??_K1status 0072                 __pmaintext 06CA  
  __end_of_contatores_init 066B                    __ptext1 0677                    __ptext2 066B  
                  __ptext3 0656                    __ptext4 064D                    __ptext5 06B3  
                  __ptext6 0660                    __ptext7 0645                    __ptext8 063D  
                  __ptext9 0683       end_of_initialization 07FC                  _PORTDbits 0008  
         ?_contatores_init 0070  __size_of_display7seg_init 000A                  _TRISDbits 0088  
               main@estado 0078              ??_display7seg 0072          __size_of_K1status 000D  
      start_initialization 07EE   __CFG_FOSC$INTRC_NOCLKOUT 0000                   K1@estado 0070  
                 K2@estado 0070                   K3@estado 0070                 init_fetch0 06A0  
              __pdataBANK0 0020        __end_of_display7seg 0656                  ___latbits 0002  
         _display7seg_init 0656             __size_of_delay 0017                __size_of_K1 0008  
              __size_of_K2 0008                __size_of_K3 0008                __size_of_s0 000C  
              __size_of_s1 000C                   _K1status 0683                _display7seg 064D  
                 __ptext10 0635          __CFG_BOR4V$BOR40V 0000   __size_of_contatores_init 000B  
            __size_of_main 0124                   main@cont 0076                   init_ram0 06A4  
 __end_of_display7seg_init 0660          ??_contatores_init 0070  
